******************************************************************************
                  TI ARM Linker PC v15.12.1                    
******************************************************************************
>> Linked Sun Aug 14 22:46:06 2016

OUTPUT FILE NAME:   <ADC_16CH_ETH.out>
ENTRY POINT SYMBOL: "_c_int00"  address: 00012df9


MEMORY CONFIGURATION

         name            origin    length      used     unused   attr    fill
----------------------  --------  ---------  --------  --------  ----  --------
  FLASH                 00000000   00100000  0002e284  000d1d7c  R  X
  SRAM                  20000000   00040000  0001bfc4  0002403c  RW X


SEGMENT ALLOCATION MAP

run origin  load origin   length   init length attrs members
----------  ----------- ---------- ----------- ----- -------
00000000    00000000    0002e28c   0002e28c    r-x
  00000000    00000000    0000003c   0000003c    r-- .resetVecs
  00000040    00000040    0001749a   0001749a    r-x .text
  000174dc    000174dc    000165c2   000165c2    r-- .const
  0002daa0    0002daa0    000007ec   000007ec    r-- .cinit
20000000    20000000    00000360   00000000    rw-
  20000000    20000000    00000360   00000000    rw- .vecs
20000400    20000400    0001bc64   00000000    rw-
  20000400    20000400    0001acec   00000000    rw- .bss
  2001b0ec    2001b0ec    00000c78   00000000    rw- .data
  2001bd64    2001bd64    00000300   00000000    rw- .stack


SECTION ALLOCATION MAP

 output                                  attributes/
section   page    origin      length       input sections
--------  ----  ----------  ----------   ----------------
.text      0    00000040    0001749a     
                  00000040    00000c68     stk.aem4f : tcpin.oem4f (.text:TcpInput)
                  00000ca8    00000984     main16eth.obj (.text:RMSCalc_Task)
                  0000162c    000008b8     stk.aem4f : tcpout.oem4f (.text:TcpOutput)
                  00001ee4    000006cc     dsplib-cm4f.lib : arm_cfft_radix8_f32.obj (.text)
                  000025b0    000006b6                     : arm_cfft_f32.obj (.text)
                  00002c66    00000002     hal_userled_stub.aem4f : llled.oem4f (.text:LED_TOGGLE)
                  00002c68    00000568     main16eth.obj (.text:ADC_Seq1_ISR)
                  000031d0    00000558     main16eth.obj (.text:ADC_Seq0_ISR)
                  00003728    00000430     sysbios.aem4f : BIOS.obj (.text:ti_sysbios_family_arm_m3_Hwi_excDumpRegs__I)
                  00003b58    00000408     stk.aem4f : ipout.oem4f (.text:IPTxPacket)
                  00003f60    00000384               : ipin.oem4f (.text:IPRxPacket)
                  000042e4    0000034c     ti.targets.arm.rtsarm.aem4f : System.oem4f (.text:xdc_runtime_System_doPrint__I)
                  00004630    00000324     rtsv7M4_T_le_v4SPD16_eabi.lib : trgdrv.obj (.text)
                  00004954    00000004     driverlib.lib : adc.obj (.text:ADCIntClearEx)
                  00004958    000002e4     sysbios.aem4f : BIOS.obj (.text:ti_sysbios_knl_Semaphore_pend__E)
                  00004c3c    000002e0     main16eth.obj (.text:FFTCalc_Task)
                  00004f1c    00000004     stk.aem4f : bind.oem4f (.text:BindGetIF)
                  00004f20    000002c0     sysbios.aem4f : BIOS.obj (.text:ti_sysbios_knl_Task_Instance_finalize__E)
                  000051e0    00000284     stk.aem4f : sock.oem4f (.text:SockSet)
                  00005464    00000004               : bind.oem4f (.text:BindGetNext)
                  00005468    00000254     sysbios.aem4f : BIOS.obj (.text:ti_sysbios_heaps_HeapMem_free__E)
                  000056bc    0000024c     stk.aem4f : ipfrag.oem4f (.text:IPReasm)
                  00005908    00000248     sysbios.aem4f : BIOS.obj (.text:ti_sysbios_heaps_HeapMem_alloc__E)
                  00005b50    0000023c     stk.aem4f : icmpin.oem4f (.text:ICMPInput)
                  00005d8c    00000238               : udp.oem4f (.text:UdpInput)
                  00005fc4    00000204     driverlib.lib : sysctl.obj (.text:SysCtlClockFreqSet)
                  000061c8    00000204     Boot.aem4f : Boot_sysctl.oem4f (.text:ti_catalog_arm_cortexm4_tiva_ce_Boot_sysCtlClockFreqSetI__I)
                  000063cc    00000004     os.aem4f : ossys.oem4f (.text:NDK_vsprintf)
                  000063d0    00000200     sysbios.aem4f : BIOS.obj (.text:ti_sysbios_knl_Task_sleep__E)
                  000065d0    000001fc                   : BIOS.obj (.text:ti_sysbios_family_arm_m3_Hwi_excHandlerMax__I)
                  000067cc    000001f4     stk.aem4f : sock.oem4f (.text:SockRecv)
                  000069c0    000001f4     sysbios.aem4f : BIOS.obj (.text:ti_sysbios_knl_Task_Instance_init__E)
                  00006bb4    000001e8     main16eth.obj (.text:tcpHandler)
                  00006d9c    000001b8     drivers_tivaware.aem4f : EMACSnow.oem4f (.text:EMACSnow_NIMUInit)
                  00006f54    000001b0     stk.aem4f : lliout.oem4f (.text:LLITxIpPacket)
                  00007104    000001ac               : lliin.oem4f (.text:LLIRxPacket)
                  000072b0    000001a4     sysbios.aem4f : BIOS.obj (.text:ti_sysbios_family_arm_lm4_Timer_start__E)
                  00007454    0000019c     os.aem4f : mem.oem4f (.text:mmAlloc)
                  000075f0    00000198     main16eth.obj (.text:ADC_init)
                  00007788    00000198     stk.aem4f : igmp.oem4f (.text:IGMPInput)
                  00007920    00000198     sysbios.aem4f : BIOS.obj (.text:ti_sysbios_family_arm_m3_Hwi_dispatchC__I)
                  00007ab8    00000190     stk.aem4f : sock.oem4f (.text:SockNew)
                  00007c48    00000184     sysbios.aem4f : BIOS.obj (.text:ti_sysbios_knl_Task_setPri__E)
                  00007dcc    00000004     stk.aem4f : node.oem4f (.text:NodeSetRt)
                  00007dd0    0000017c     sysbios.aem4f : BIOS.obj (.text:ti_sysbios_family_arm_lm4_TimestampProvider_get64__E)
                  00007f4c    00000178     dsplib-cm4f.lib : arm_rfft_fast_f32.obj (.text)
                  000080c4    00000004     stk.aem4f : rawethsock_prot.oem4f (.text:RawEthSockPrAttach)
                  000080c8    00000178     sysbios.aem4f : BIOS.obj (.text:ti_sysbios_knl_Swi_run__I)
                  00008240    00000174     netctrl_min_ipv4.aem4f : netctrl.oem4f (.text:NC_NetStart)
                  000083b4    00000004     stk.aem4f : rawethsock_prot.oem4f (.text:RawEthSockPrDetach)
                  000083b8    00000174     sysbios.aem4f : BIOS.obj (.text:ti_sysbios_family_arm_m3_Hwi_excBusFault__I)
                  0000852c    00000170     stk.aem4f : rtc.oem4f (.text:RTCReport)
                  0000869c    0000016a               : sb.oem4f (.text:SBRead)
                  00008806    00000002               : nat.oem4f (.text:NatMsg)
                  00008808    00000164     sysbios.aem4f : BIOS.obj (.text:ti_sysbios_family_arm_m3_Hwi_excUsageFault__I)
                  0000896c    00000160     stk.aem4f : sock.oem4f (.text:SockConnect)
                  00008acc    00000004     os.aem4f : semaphore.oem4f (.text:SemPend)
                  00008ad0    00000160     sysbios.aem4f : BIOS.obj (.text:ti_sysbios_utils_Load_logLoads__I)
                  00008c30    00000158     nettool_ipv4.aem4f : dhcpmain.oem4f (.text:DHCPOpen)
                  00008d88    00000150     drivers_tivaware.aem4f : GPIOTiva.oem4f (.text:GPIO_setConfig)
                  00008ed8    00000148     sysbios.aem4f : BIOS.obj (.text:ti_sysbios_family_arm_m3_Hwi_excMemFault__I)
                  00009020    00000144     stk.aem4f : bind.oem4f (.text:BindNew)
                  00009164    00000140               : tcp.oem4f (.text:TcpTimeoutCheck)
                  000092a4    00000004     os.aem4f : semaphore.oem4f (.text:SemPost)
                  000092a8    00000140     sysbios.aem4f : BIOS.obj (.text:ti_sysbios_knl_Semaphore_post__E)
                  000093e8    0000013c     nettool_ipv4.aem4f : config.oem4f (.text:CfgAddEntry)
                  00009524    0000013c     stk.aem4f : sockint.oem4f (.text:SockNotify)
                  00009660    0000013c               : sock.oem4f (.text:SockSend)
                  0000979c    0000013c     dsplib-cm4f.lib : arm_cmplx_mag_f32.obj (.text)
                  000098d8    0000013c     sysbios.aem4f : BIOS.obj (.text:ti_sysbios_heaps_HeapMem_Instance_init__E)
                  00009a14    00000138     RTOS_16eth_pem4f.oem4f (.text:ti_uia_loggers_LoggerStopMode_writeMemoryRange__E)
                  00009b4c    00000134     stk.aem4f : icmp.oem4f (.text:ICMPGenPacket)
                  00009c80    00000134     sysbios.aem4f : BIOS.obj (.text:ti_sysbios_knl_Clock_workFunc__E)
                  00009db4    00000130     driverlib.lib : gpio.obj (.text:GPIOPadConfigSet)
                  00009ee4    0000012c     EK_TM4C1294XL.obj (.text:EK_TM4C1294XL_initEMAC)
                  0000a010    00000124     stk.aem4f : sockpcb.oem4f (.text:SockPcbResolve)
                  0000a134    00000124               : udp.oem4f (.text:UdpOutput)
                  0000a258    00000124     RTOS_16eth_pem4f.oem4f (.text:ti_ndk_config_Global_stackThread)
                  0000a37c    00000004     os.aem4f : semaphore.oem4f (.text:SemReset)
                  0000a380    0000011c     sysbios.aem4f : BIOS.obj (.text:ti_sysbios_knl_Clock_Instance_init__E)
                  0000a49c    00000118     stk.aem4f : tcpout.oem4f (.text:TcpGenPacket)
                  0000a5b4    00000118     ti.targets.arm.rtsarm.aem4f : Error.oem4f (.text:xdc_runtime_Error_policyDefault__E)
                  0000a6cc    00000114     stk.aem4f : nimu.oem4f (.text:NIMUIoctl)
                  0000a7e0    00000114     sysbios.aem4f : BIOS.obj (.text:ti_sysbios_utils_Load_updateThreadContexts__E)
                  0000a8f4    00000110     stk.aem4f : node.oem4f (.text:NodeTreeFree)
                  0000aa04    00000110               : raw.oem4f (.text:RawInput)
                  0000ab14    00000004     os.aem4f : task.oem4f (.text:TaskSelf)
                  0000ab18    00000110     sysbios.aem4f : BIOS.obj (.text:ti_sysbios_knl_Task_schedule__I)
                  0000ac28    0000010c     stk.aem4f : rtable.oem4f (.text:RtFind)
                  0000ad34    0000010c     RTOS_16eth_pem4f.oem4f (.text:ti_uia_loggers_LoggerStopMode_write8__E)
                  0000ae40    0000010a     stk.aem4f : route.oem4f (.text:RtCreate)
                  0000af4a    00000002     os.aem4f : task.oem4f (.text:_TaskInit)
                  0000af4c    00000108     drivers_tivaware.aem4f : EMACSnow.oem4f (.text:EMACSnow_emacStart)
                  0000b054    00000004     os.aem4f : task.oem4f (.text:TaskSetPri)
                  0000b058    00000108     sysbios.aem4f : BIOS.obj (.text:ti_sysbios_knl_Task_exit__E)
                  0000b160    00000104     os.aem4f : task.oem4f (.text:llEnter)
                  0000b264    00000004     driverlib.lib : timer.obj (.text:TimerADCEventSet)
                  0000b268    00000104     sysbios.aem4f : BIOS.obj (.text:ti_sysbios_knl_Swi_Instance_init__E)
                  0000b36c    00000004     hal_ser_stub.aem4f : llserstb.oem4f (.text:_llSerialInit)
                  0000b370    00000104     sysbios.aem4f : BIOS.obj (.text:ti_sysbios_knl_Swi_Module_startup__E)
                  0000b474    00000102     nettool_ipv4.aem4f : dhcppkt.oem4f (.text:dhcpPacketProcess)
                  0000b576    00000102                        : inetaddr.oem4f (.text:inet_aton)
                  0000b678    00000100     stk.aem4f : igmp.oem4f (.text:IGMPSendReply)
                  0000b778    00000100     ADC_pinout.obj (.text:PinoutSetADC)
                  0000b878    00000100     ti.targets.arm.rtsarm.aem4f : Core-mem.oem4f (.text:xdc_runtime_Core_createObject__I)
                  0000b978    000000fc     netctrl_min_ipv4.aem4f : netctrl.oem4f (.text:NetScheduler)
                  0000ba74    000000fc     dsplib-cm4f.lib : arm_rfft_fast_init_f32.obj (.text)
                  0000bb70    000000fc     sysbios.aem4f : BIOS.obj (.text:ti_sysbios_knl_Task_postInit__I)
                  0000bc6c    00000004     stk.aem4f : listlib.oem4f (.text:list_get_head)
                  0000bc70    000000fc     sysbios.aem4f : BIOS.obj (.text:ti_sysbios_knl_Task_startCore__E)
                  0000bd6c    000000f8     stk.aem4f : pipe.oem4f (.text:PipeRecv)
                  0000be64    000000f8     ti.targets.arm.rtsarm.aem4f : Startup.oem4f (.text:xdc_runtime_Startup_startMods__I)
                  0000bf5c    000000f8     RTOS_16eth_pem4f.oem4f (.text:xdc_runtime_System_printfExtend__I)
                  0000c054    000000f4     os.aem4f : task.oem4f (.text:TaskGetEnv)
                  0000c148    000000f4     sysbios.aem4f : m3_Hwi_asm.obj (.text:ti_sysbios_family_arm_m3_Hwi_dispatch__I)
                  0000c23c    000000f4     RTOS_16eth_pem4f.oem4f (.text:ti_uia_loggers_LoggerStopMode_write4__E)
                  0000c330    000000f0     stk.aem4f : lliout.oem4f (.text:LLIGenArpPacket)
                  0000c420    000000f0               : sock.oem4f (.text:SockClose)
                  0000c510    000000e8     os.aem4f : task.oem4f (.text:TaskSetEnv)
                  0000c5f8    000000e8     RTOS_16eth_pem4f.oem4f (.text:ti_uia_loggers_LoggerStopMode_write2__E)
                  0000c6e0    000000e4     main16eth.obj (.text:DMA_init)
                  0000c7c4    000000e4     RTOS_16eth_pem4f.oem4f (.text:ti_uia_loggers_LoggerStopMode_write1__E)
                  0000c8a8    000000e0     stk.aem4f : tcptime.oem4f (.text:TcpTimeoutRexmt)
                  0000c988    000000dc               : sb.oem4f (.text:SBWrite)
                  0000ca64    000000dc     nettool_ipv4.aem4f : dhcpsock.oem4f (.text:dhcpSocketOpen)
                  0000cb40    000000dc                        : dhcpsm.oem4f (.text:dhcpState)
                  0000cc1c    000000dc     RTOS_16eth_pem4f.oem4f (.text:ti_uia_loggers_LoggerStopMode_write0__E)
                  0000ccf8    000000d8     stk.aem4f : node.oem4f (.text:NodeAdd)
                  0000cdd0    000000d8               : tcpprot.oem4f (.text:TcpPrSetOption)
                  0000cea8    000000d8     sysbios.aem4f : BIOS.obj (.text:ti_sysbios_family_arm_lm4_TimestampProvider_get32__E)
                  0000cf80    000000d8                   : BIOS.obj (.text:ti_sysbios_family_arm_m3_Hwi_postInit__I)
                  0000d058    000000d8                   : BIOS.obj (.text:ti_sysbios_knl_Swi_post__E)
                  0000d130    000000d4     drivers_tivaware.aem4f : EMACSnow.oem4f (.text:EMACSnow_handleRx)
                  0000d204    000000d4     stk.aem4f : sockpcb.oem4f (.text:SockPcbBind)
                  0000d2d8    000000d1               : nimu.oem4f (.text:NIMUReceivePacket)
                  0000d3a9    00000001     --HOLE-- [fill = 0]
                  0000d3aa    00000002     os.aem4f : task.oem4f (.text:_TaskShutdown)
                  0000d3ac    000000cc     stk.aem4f : icmp.oem4f (.text:ICMPSendRtAdv)
                  0000d478    000000cc     nettool_ipv4.aem4f : dhcpbild.oem4f (.text:dhcpBuildHeader)
                  0000d544    000000cc                        : dhcpsm.oem4f (.text:dhcpIPAdd)
                  0000d610    000000cc                        : dhcppkt.oem4f (.text:dhcpVerifyMessage)
                  0000d6dc    00000004     stk.aem4f : listlib.oem4f (.text:list_get_next)
                  0000d6e0    000000cc     sysbios.aem4f : BIOS.obj (.text:ti_sysbios_family_arm_m3_Hwi_Instance_init__E)
                  0000d7ac    000000cc     ti.targets.arm.rtsarm.aem4f : Core-smem.oem4f (.text:xdc_runtime_Core_constructObject__I)
                  0000d878    000000c8     stk.aem4f : rawethsock.oem4f (.text:RawEthSockNew)
                  0000d940    000000c8     netctrl_min_ipv4.aem4f : netsrv.oem4f (.text:SPIpNet)
                  0000da08    000000c4     drivers_tivaware.aem4f : EMACSnow.oem4f (.text:EMACSnow_InitDMADescriptors)
                  0000dacc    000000c4     stk.aem4f : igmp.oem4f (.text:IGMPJoinHostGroup)
                  0000db90    000000c4     nettool_ipv4.aem4f : dhcpsm.oem4f (.text:StateBound)
                  0000dc54    000000c0     dsplib-cm4f.lib : arm_bitreversal2.obj (.text)
                  0000dd14    000000c0     main16eth.obj (.text:tcpWorker)
                  0000ddd4    000000bc     stk.aem4f : sockpcb.oem4f (.text:SockPcbFind)
                  0000de90    000000bc               : vlan.oem4f (.text:VLANDeinit)
                  0000df4c    00000004     RTOS_16eth_pem4f.oem4f (.text:ti_ndk_config_Global_NetworkOpen)
                  0000df50    000000bc     sysbios.aem4f : BIOS.obj (.text:ti_sysbios_family_arm_m3_Hwi_excDebugMon__I)
                  0000e00c    00000004     RTOS_16eth_pem4f.oem4f (.text:ti_sysbios_BIOS_RtsGateProxy_enter__E)
                  0000e010    000000bc     sysbios.aem4f : BIOS.obj (.text:ti_sysbios_family_arm_m3_Hwi_excHardFault__I)
                  0000e0cc    000000b8     EK_TM4C1294XL.obj (.text:EK_TM4C1294XL_initGeneral)
                  0000e184    000000b8     stk.aem4f : icmpin.oem4f (.text:ICMPRevSrcRoute)
                  0000e23c    000000b8               : lli.oem4f (.text:_LLITimeoutCheck)
                  0000e2f4    00000004     RTOS_16eth_pem4f.oem4f (.text:ti_sysbios_BIOS_RtsGateProxy_leave__E)
                  0000e2f8    000000b8     sysbios.aem4f : BIOS.obj (.text:ti_sysbios_knl_Task_unblockI__E)
                  0000e3b0    000000b4     stk.aem4f : tcptime.oem4f (.text:TcpTimeoutKeep)
                  0000e464    00000004     sysbios.aem4f : BIOS.obj (.text:ti_sysbios_family_arm_lm4_Timer_masterEnable__I)
                  0000e468    000000b4                   : BIOS.obj (.text:ti_sysbios_gates_GateMutex_enter__E)
                  0000e51c    00000004     RTOS_16eth_pem4f.oem4f (.text:ti_sysbios_family_arm_m3_Hwi_delete)
                  0000e520    000000b4     sysbios.aem4f : BIOS.obj (.text:ti_sysbios_knl_Task_checkStacks__E)
                  0000e5d4    000000b0     stk.aem4f : rawethsock.oem4f (.text:RawEthSockSet)
                  0000e684    00000004     RTOS_16eth_pem4f.oem4f (.text:ti_sysbios_family_arm_m3_TaskSupport_Module__startupDone__S)
                  0000e688    000000b0     sysbios.aem4f : BIOS.obj (.text:ti_sysbios_utils_Load_idleFxn__E)
                  0000e738    000000b0                   : BIOS.obj (.text:ti_sysbios_utils_Load_updateLoads__E)
                  0000e7e8    000000ac     stk.aem4f : rtable.oem4f (.text:RtTimeoutCheck)
                  0000e894    000000ac     RTOS_16eth_pem4f.oem4f (.text:ti_ndk_config_ip_init)
                  0000e940    000000ac     sysbios.aem4f : BIOS.obj (.text:ti_sysbios_family_arm_lm4_Timer_enableTiva__I)
                  0000e9ec    000000a8     stk.aem4f : sockint.oem4f (.text:SockCreatePacket)
                  0000ea94    00000004     RTOS_16eth_pem4f.oem4f (.text:ti_sysbios_heaps_HeapMem_Module_GateProxy_enter__E)
                  0000ea98    000000a8     sysbios.aem4f : BIOS.obj (.text:ti_sysbios_family_arm_lm4_Timer_enableTimers__I)
                  0000eb40    000000a8                   : BIOS.obj (.text:ti_sysbios_knl_Task_blockI__E)
                  0000ebe8    000000a0     stk.aem4f : ip.oem4f (.text:IPGetRoute)
                  0000ec88    000000a0     auto_init.aem4f : auto_init.oem4f (.text)
                  0000ed28    000000a0     sysbios.aem4f : BIOS.obj (.text:ti_sysbios_knl_Swi_Instance_finalize__E)
                  0000edc8    000000a0     ti.targets.arm.rtsarm.aem4f : Text.oem4f (.text:xdc_runtime_Text_putMod__E)
                  0000ee68    0000009e     stk.aem4f : nimu.oem4f (.text:NIMUAddEthernetHeader)
                  0000ef06    0000009e     nettool_ipv4.aem4f : dhcpbild.oem4f (.text:dhcpBuildRequest)
                  0000efa4    0000009c     stk.aem4f : exec.oem4f (.text:ExecOpen)
                  0000f040    0000009c     rtsv7M4_T_le_v4SPD16_eabi.lib : memcpy_t2.obj (.text)
                  0000f0dc    00000004     RTOS_16eth_pem4f.oem4f (.text:ti_sysbios_heaps_HeapMem_Module_GateProxy_leave__E)
                  0000f0e0    0000009c     sysbios.aem4f : BIOS.obj (.text:ti_sysbios_knl_Semaphore_Instance_init__E)
                  0000f17c    0000009a     ti.targets.arm.rtsarm.aem4f : Text.oem4f (.text:xdc_runtime_Text_putSite__E)
                  0000f216    00000002     hal_ser_stub.aem4f : llserstb.oem4f (.text:_llSerialServiceCheck)
                  0000f218    00000098     netctrl_min_ipv4.aem4f : netctrl.oem4f (.text:NC_SystemOpen)
                  0000f2b0    00000098                            : netsrv.oem4f (.text:ServiceScan)
                  0000f348    00000098     Boot.aem4f : Boot.oem4f (.text:ti_catalog_arm_cortexm4_tiva_ce_Boot_sysCtlClockFreqSet__E)
                  0000f3e0    00000094     nettool_ipv4.aem4f : config.oem4f (.text:CfgRemoveEntry)
                  0000f474    00000004     RTOS_16eth_pem4f.oem4f (.text:ti_sysbios_knl_Clock_TimerProxy_getMaxTicks__E)
                  0000f478    00000094     sysbios.aem4f : BIOS.obj (.text:ti_sysbios_family_arm_m3_Hwi_initNVIC__E)
                  0000f50c    00000090     nettool_ipv4.aem4f : config.oem4f (.text:CfgExecute)
                  0000f59c    00000090     stk.aem4f : igmp.oem4f (.text:IGMPMsg)
                  0000f62c    00000090     os.aem4f : mem.oem4f (.text:mmBulkAlloc)
                  0000f6bc    00000004     RTOS_16eth_pem4f.oem4f (.text:ti_sysbios_knl_Clock_TimerProxy_getPeriod__E)
                  0000f6c0    00000090     sysbios.aem4f : BIOS.obj (.text:ti_sysbios_knl_Task_Module_startup__E)
                  0000f750    00000090                   : BIOS.obj (.text:ti_sysbios_utils_Load_startup__E)
                  0000f7e0    00000090     ti.uia.loggers.aem4f : LoggerStopMode.oem4f (.text:ti_uia_loggers_LoggerStopMode_initQueueDescriptor__E)
                  0000f870    0000008c     drivers_tivaware.aem4f : GPIOTiva.oem4f (.text:GPIO_init)
                  0000f8fc    0000008c     stk.aem4f : ip.oem4f (.text:IPMsg)
                  0000f988    0000008c     os.aem4f : mem.oem4f (.text:_mmInit)
                  0000fa14    0000008c              : mem.oem4f (.text:mmInitPage)
                  0000faa0    0000008c     sysbios.aem4f : m3_TaskSupport_asm.obj (.text:ti_sysbios_family_arm_m3_TaskSupport_buildTaskStack)
                  0000fb2c    00000004     RTOS_16eth_pem4f.oem4f (.text:ti_sysbios_knl_Queue_destruct)
                  0000fb30    0000008c     sysbios.aem4f : BIOS.obj (.text:ti_sysbios_utils_Load_updateCurrentThreadTime__E)
                  0000fbbc    0000008a     netctrl_min_ipv4.aem4f : netsrv.oem4f (.text:SPRoute)
                  0000fc46    00000002     hal_ser_stub.aem4f : llserstb.oem4f (.text:_llSerialShutdown)
                  0000fc48    00000088     netctrl_min_ipv4.aem4f : netsrv.oem4f (.text:ServiceSpawn)
                  0000fcd0    00000088     stk.aem4f : sockpcb.oem4f (.text:SockPcbCtlError)
                  0000fd58    00000086     nettool_ipv4.aem4f : dhcpsm.oem4f (.text:StateRequesting)
                  0000fdde    00000002     hal_userled_stub.aem4f : llled.oem4f (.text:_llUserLedInit)
                  0000fde0    00000084     nettool_ipv4.aem4f : config.oem4f (.text:CfgGetEntry)
                  0000fe64    00000084     drivers_tivaware.aem4f : EMACSnow.oem4f (.text:EMACSnow_processPhyInterrupt)
                  0000fee8    00000084     stk.aem4f : tcpprot.oem4f (.text:TcpPrAttach)
                  0000ff6c    00000084     os.aem4f : mem.oem4f (.text:mmBulkFree)
                  0000fff0    00000084              : mem.oem4f (.text:mmFree)
                  00010074    00000084     driverlib.lib : udma.obj (.text:uDMAChannelTransferSet)
                  000100f8    00000082     nettool_ipv4.aem4f : dhcpsm.oem4f (.text:StateRenewRebind)
                  0001017a    00000002     hal_userled_stub.aem4f : llled.oem4f (.text:_llUserLedShutdown)
                  0001017c    00000080     drivers_tivaware.aem4f : EMACSnow.oem4f (.text:EMACSnow_emacStop)
                  000101fc    00000080                            : EMACSnow.oem4f (.text:EMACSnow_processPendingTx)
                  0001027c    00000080     stk.aem4f : lli.oem4f (.text:LLINew)
                  000102fc    00000080     netctrl_min_ipv4.aem4f : netsrv.oem4f (.text:NS_BootTask)
                  0001037c    00000080     stk.aem4f : pbm.oem4f (.text:PBM_alloc)
                  000103fc    00000080               : raw.oem4f (.text:RawOutput)
                  0001047c    00000080     dsplib-cm4f.lib : arm_rms_f32.obj (.text)
                  000104fc    0000007f     RTOS_16eth_pem4f.oem4f (.text:ti_ndk_config_Global_NetworkIPAddr)
                  0001057b    00000001     --HOLE-- [fill = 0]
                  0001057c    0000007e     stk.aem4f : fileuser.oem4f (.text:fdClose)
                  000105fa    00000002     hal_ser_stub.aem4f : llserstb.oem4f (.text:llSerialService)
                  000105fc    0000007c     nettool_ipv4.aem4f : config.oem4f (.text:CfgGetNextEntry)
                  00010678    0000007c     drivers_tivaware.aem4f : EMACSnow.oem4f (.text:EMACSnow_hwiIntFxn)
                  000106f4    0000007c     stk.aem4f : igmp.oem4f (.text:IGMPDoMCast)
                  00010770    0000007c               : igmp.oem4f (.text:IGMPJoin)
                  000107ec    0000007c               : socket.oem4f (.text:NDK_setsockopt)
                  00010868    0000007c               : nimu.oem4f (.text:NIMURegister)
                  000108e4    0000007c               : pbm.oem4f (.text:PBM_free)
                  00010960    0000007a     driverlib.lib : adc.obj (.text:ADCSequenceStepConfigure)
                  000109da    0000007a     stk.aem4f : sock.oem4f (.text:SockAccept)
                  00010a54    0000007a     rtsv7M4_T_le_v4SPD16_eabi.lib : memset_t2.obj (.text)
                  00010ace    00000002                                   : i_div0.obj (.text)
                  00010ad0    00000078     driverlib.lib : emac.obj (.text:EMACInit)
                  00010b48    00000078     stk.aem4f : socket.oem4f (.text:NDK_sendto)
                  00010bc0    00000078               : tcptime.oem4f (.text:TcpXmitTimer)
                  00010c38    00000078               : fileuser.oem4f (.text:fdOpenSession)
                  00010cb0    00000078     os.aem4f : task.oem4f (.text:llExit)
                  00010d28    00000078     sysbios.aem4f : BIOS.obj (.text:ti_sysbios_family_arm_m3_Hwi_Instance_finalize__E)
                  00010da0    00000076     stk.aem4f : pipe.oem4f (.text:PipeSend)
                  00010e16    00000002     RTOS_16eth_pem4f.oem4f (.text:ti_ndk_config_Global_NetworkClose)
                  00010e18    00000075     stk.aem4f : tcptime.oem4f (.text:TcpTimeoutSackRexmt)
                  00010e8d    00000001     --HOLE-- [fill = 0]
                  00010e8e    00000002     RTOS_16eth_pem4f.oem4f (.text:ti_sysbios_BIOS_nullFunc__I)
                  00010e90    00000074     stk.aem4f : igmp.oem4f (.text:IGMPLeaveHostGroup)
                  00010f04    00000074               : nimu.oem4f (.text:NIMUShutdown)
                  00010f78    00000074               : raweth.oem4f (.text:RawEthRxPacket)
                  00010fec    00000074               : sockpcb.oem4f (.text:SockPcbConnect)
                  00011060    00000074     tcpEchoHooks.obj (.text:netOpenHook)
                  000110d4    00000004     RTOS_16eth_pem4f.oem4f (.text:ti_sysbios_knl_Semaphore_delete)
                  000110d8    00000074     sysbios.aem4f : BIOS.obj (.text:ti_sysbios_family_arm_m3_Hwi_Module_startup__E)
                  0001114c    00000004     RTOS_16eth_pem4f.oem4f (.text:ti_sysbios_knl_Semaphore_destruct)
                  00011150    00000074     sysbios.aem4f : BIOS.obj (.text:ti_sysbios_knl_Clock_start__E)
                  000111c4    00000074     ti.uia.runtime.aem4f : QueueDescriptor.oem4f (.text:ti_uia_runtime_QueueDescriptor_addToList__E)
                  00011238    00000072     os.aem4f : semaphore.oem4f (.text:SemCreateBinary)
                  000112aa    00000070     stk.aem4f : socket.oem4f (.text:NDK_accept)
                  0001131a    00000070               : socket.oem4f (.text:NDK_send)
                  0001138a    00000002     RTOS_16eth_pem4f.oem4f (.text:ti_uia_loggers_LoggerStopMode_setFilterLevel__E)
                  0001138c    00000070     stk.aem4f : rtable.oem4f (.text:RtFlush)
                  000113fc    00000070     netctrl_min_ipv4.aem4f : netsrv.oem4f (.text:SPConfig)
                  0001146c    00000070     stk.aem4f : sock.oem4f (.text:SockShutdown)
                  000114dc    00000070     nettool_ipv4.aem4f : dhcptags.oem4f (.text:dhcpDecodeType)
                  0001154c    0000006e     stk.aem4f : socket.oem4f (.text:NDK_recv)
                  000115ba    00000002     ti.uia.loggers.aem4f : LoggerStopMode.oem4f (.text:ti_uia_loggers_LoggerStopMode_setPriority__E)
                  000115bc    0000006e     stk.aem4f : rtable.oem4f (.text:RtWalkNext)
                  0001162a    0000006e               : sockpcb.oem4f (.text:SockPcbFindRaw)
                  00011698    0000006d               : node.oem4f (.text:NodeNew)
                  00011705    00000001     --HOLE-- [fill = 0]
                  00011706    00000002     RTOS_16eth_pem4f.oem4f (.text:xdc_runtime_Startup_reset__I)
                  00011708    0000006d     ti.targets.arm.rtsarm.aem4f : System.oem4f (.text:xdc_runtime_System_formatNum__I)
                  00011775    00000003     --HOLE-- [fill = 0]
                  00011778    0000006c     os.aem4f : ossys.oem4f (.text:DbgPrintf)
                  000117e4    0000006c     stk.aem4f : node.oem4f (.text:NodeTreeNew)
                  00011850    0000006c               : raweth.oem4f (.text:RawEthTxPacket)
                  000118bc    0000006c               : udp.oem4f (.text:UdpChecksum)
                  00011928    0000006c     dsplib-cm4f.lib : arm_scale_f32.obj (.text)
                  00011994    00000004     RTOS_16eth_pem4f.oem4f (.text:ti_sysbios_knl_Swi_delete)
                  00011998    0000006c     sysbios.aem4f : BIOS.obj (.text:ti_sysbios_knl_Swi_restoreHwi__E)
                  00011a04    00000004     RTOS_16eth_pem4f.oem4f (.text:ti_sysbios_knl_Task_delete)
                  00011a08    0000006c     sysbios.aem4f : BIOS.obj (.text:ti_sysbios_utils_Load_taskCreateHook__E)
                  00011a74    0000006c     ti.targets.arm.rtsarm.aem4f : Error.oem4f (.text:xdc_runtime_Error_print__E)
                  00011ae0    0000006c                                 : Memory.oem4f (.text:xdc_runtime_Memory_alloc__E)
                  00011b4c    0000006a     stk.aem4f : tcpprot.oem4f (.text:TcpPrInherit)
                  00011bb6    0000006a     rtsv7M4_T_le_v4SPD16_eabi.lib : copy_decompress_rle.obj (.text)
                  00011c20    00000068     driverlib.lib : interrupt.obj (.text:IntEnable)
                  00011c88    00000068     stk.aem4f : socket.oem4f (.text:NDK_socket)
                  00011cf0    00000068               : pbm.oem4f (.text:PBM_open)
                  00011d58    00000068               : sock.oem4f (.text:SockListen)
                  00011dc0    00000068     main16eth.obj (.text:TIMER_init)
                  00011e28    00000068     stk.aem4f : rtable.oem4f (.text:_RtNodeInsert)
                  00011e90    00000068     rtsv7M4_T_le_v4SPD16_eabi.lib : trgmsg.obj (.text)
                  00011ef8    00000068     sysbios.aem4f : BIOS.obj (.text:ti_sysbios_utils_Load_addTask__E)
                  00011f60    00000066     ti.uia.loggers.aem4f : LoggerStopMode.oem4f (.text:ti_uia_loggers_LoggerStopMode_flush__E)
                  00011fc6    00000066     ti.targets.arm.rtsarm.aem4f : Core-mem.oem4f (.text:xdc_runtime_Core_deleteObject__I)
                  0001202c    00000064     nettool_ipv4.aem4f : config.oem4f (.text:CfgFree)
                  00012090    00000064     drivers_tivaware.aem4f : GPIOTiva.oem4f (.text:GPIO_hwiIntFxn)
                  000120f4    00000064     stk.aem4f : pbm.oem4f (.text:PBMQ_enq)
                  00012158    00000064               : sockint.oem4f (.text:SockSpawnAbort)
                  000121bc    00000064     hal_timer_bios.aem4f : lltimer.oem4f (.text:llTimerTick)
                  00012220    00000064     sysbios.aem4f : BIOS.obj (.text:ti_sysbios_family_arm_lm4_Timer_Module_startup__E)
                  00012284    00000064     RTOS_16eth_pem4f.oem4f (.text:ti_sysbios_family_arm_m3_Hwi_create)
                  000122e8    00000064     stk.aem4f : lliin.oem4f (.text:updateRtTable)
                  0001234c    00000062               : ipin.oem4f (.text:IPRouteIP)
                  000123ae    00000002     --HOLE-- [fill = 0]
                  000123b0    00000062               : sb.oem4f (.text:SBNew)
                  00012412    00000002     --HOLE-- [fill = 0]
                  00012414    00000060     nettool_ipv4.aem4f : config.oem4f (.text:CfgGetEntryCnt)
                  00012474    00000060     stk.aem4f : file.oem4f (.text:FdWaitEvent)
                  000124d4    00000060               : nimu.oem4f (.text:NIMUUnregister)
                  00012534    00000060               : node.oem4f (.text:NodeFind)
                  00012594    00000060               : rtc.oem4f (.text:RTCMsg)
                  000125f4    00000060               : tcp.oem4f (.text:TcpChecksum)
                  00012654    00000060     driverlib.lib : timer.obj (.text:TimerConfigure)
                  000126b4    00000060     nettool_ipv4.aem4f : dhcptags.oem4f (.text:dhcpBuildOptions)
                  00012714    00000004     ti.uia.loggers.aem4f : LoggerStopMode.oem4f (.text:ti_uia_loggers_LoggerStopMode_getContents__E)
                  00012718    00000060     sysbios.aem4f : BIOS.obj (.text:ti_sysbios_family_arm_lm4_Timer_isrStub__E)
                  00012778    00000060                   : BIOS.obj (.text:ti_sysbios_knl_Clock_logTick__E)
                  000127d8    00000060                   : BIOS.obj (.text:ti_sysbios_utils_Load_logCPULoad__I)
                  00012838    0000005e     stk.aem4f : route.oem4f (.text:RtRemove)
                  00012896    0000005e     nettool_ipv4.aem4f : dhcpsm.oem4f (.text:StateSelecting)
                  000128f4    0000005e     stk.aem4f : vlan.oem4f (.text:VLANReceivePacket)
                  00012952    00000002     --HOLE-- [fill = 0]
                  00012954    0000005c     nettool_ipv4.aem4f : config.oem4f (.text:CfgSetExecuteOrder)
                  000129b0    0000005c     stk.aem4f : nimu.oem4f (.text:NIMUIoctlSpecialCmd)
                  00012a0c    0000005c     netctrl_min_ipv4.aem4f : netsrv.oem4f (.text:SPService)
                  00012a68    0000005c     RTOS_16eth_pem4f.oem4f (.text:ti_sysbios_knl_Swi_create)
                  00012ac4    00000004     RTOS_16eth_pem4f.oem4f (.text:ti_uia_loggers_LoggerStopMode_getFilterLevel__E)
                  00012ac8    0000005c     sysbios.aem4f : BIOS.obj (.text:ti_sysbios_knl_Swi_schedule__I)
                  00012b24    0000005c     RTOS_16eth_pem4f.oem4f (.text:ti_sysbios_knl_Task_create)
                  00012b80    0000005b     ti.targets.arm.rtsarm.aem4f : Text.oem4f (.text:xdc_runtime_Text_putLab__E)
                  00012bdb    00000001     --HOLE-- [fill = 0]
                  00012bdc    0000005a     stk.aem4f : route.oem4f (.text:RtRedirect)
                  00012c36    0000005a               : tcpprot.oem4f (.text:TcpValidateMetrics)
                  00012c90    0000005a     nettool_ipv4.aem4f : dhcpbild.oem4f (.text:dhcpBuildDecline)
                  00012cea    0000005a     os.aem4f : mem.oem4f (.text:mmCopy)
                  00012d44    0000005a     RTOS_16eth_pem4f.oem4f (.text:ti_ndk_config_tcp_init)
                  00012d9e    00000002     --HOLE-- [fill = 0]
                  00012da0    00000058     stk.aem4f : bind.oem4f (.text:BindFree)
                  00012df8    00000058     boot.aem4f : boot.oem4f (.text)
                  00012e50    00000058     driverlib.lib : emac.obj (.text:EMACPHYConfigSet)
                  00012ea8    00000058     stk.aem4f : igmp.oem4f (.text:IGMPTimer)
                  00012f00    00000058     os.aem4f : semaphore.oem4f (.text:SemCreate)
                  00012f58    00000058     driverlib.lib : timer.obj (.text:TimerControlTrigger)
                  00012fb0    00000058     sysbios.aem4f : m3_Hwi_asm_switch.obj (.text:ti_sysbios_family_arm_m3_Hwi_initStacks__E)
                  00013008    00000058                   : BIOS.obj (.text:ti_sysbios_knl_Swi_postInit__I)
                  00013060    00000056     driverlib.lib : gpio.obj (.text:GPIOIntTypeSet)
                  000130b6    00000002     --HOLE-- [fill = 0]
                  000130b8    00000054     nettool_ipv4.aem4f : config.oem4f (.text:CfgEntryDeRef)
                  0001310c    00000054     stk.aem4f : igmp.oem4f (.text:IGMPLeave)
                  00013160    00000054               : rawethsock_pcb.oem4f (.text:RawEthSockPcbAttach)
                  000131b4    00000054               : sockpcb.oem4f (.text:SockCleanPcb)
                  00013208    00000054               : tcptime.oem4f (.text:TcpTimeoutPersist)
                  0001325c    00000054     rtsv7M4_T_le_v4SPD16_eabi.lib : exit.obj (.text)
                  000132b0    00000054     RTOS_16eth_pem4f.oem4f (.text:ti_sysbios_utils_Load_hwiBeginHook__E)
                  00013304    00000004     ti.uia.loggers.aem4f : LoggerStopMode.oem4f (.text:ti_uia_loggers_LoggerStopMode_getInstanceId__E)
                  00013308    00000054     sysbios.aem4f : BIOS.obj (.text:ti_sysbios_utils_Load_taskSwitchHook__E)
                  0001335c    00000054     ti.targets.arm.rtsarm.aem4f : Assert.oem4f (.text:xdc_runtime_Assert_raise__I)
                  000133b0    00000052     stk.aem4f : tcpprot.oem4f (.text:TcpPrDetach)
                  00013402    00000002     --HOLE-- [fill = 0]
                  00013404    00000050     drivers_tivaware.aem4f : GPIOTiva.oem4f (.text:GPIO_setCallback)
                  00013454    00000050                            : GPIOTiva.oem4f (.text:GPIO_toggle)
                  000134a4    00000050                            : GPIOTiva.oem4f (.text:GPIO_write)
                  000134f4    00000050     stk.aem4f : socket.oem4f (.text:NDK_bind)
                  00013544    00000050               : route.oem4f (.text:RtNew)
                  00013594    00000050     driverlib.lib : sysctl.obj (.text:SysCtlPeripheralReset)
                  000135e4    00000050     Boot.aem4f : Boot_sysctl.oem4f (.text:_SysCtlFrequencyGet)
                  00013634    00000050     ti.targets.arm.rtsarm.aem4f : Startup.oem4f (.text:xdc_runtime_Startup_exec__E)
                  00013684    00000050                                 : Text.oem4f (.text:xdc_runtime_Text_visitRope2__I)
                  000136d4    0000004e     stk.aem4f : node.oem4f (.text:NodeDeRef)
                  00013722    0000004e     nettool_ipv4.aem4f : config.oem4f (.text:_CfgEntryScan)
                  00013770    0000004c                        : ipaddr.oem4f (.text:NtAddNetwork)
                  000137bc    0000004c     stk.aem4f : sockint.oem4f (.text:SockValidateRoute)
                  00013808    0000004c     rtsv7M4_T_le_v4SPD16_eabi.lib : cpy_tbl.obj (.text)
                  00013854    00000004     ti.uia.loggers.aem4f : LoggerStopMode.oem4f (.text:ti_uia_loggers_LoggerStopMode_getMaxLength__E)
                  00013858    0000004c     sysbios.aem4f : BIOS.obj (.text:ti_sysbios_heaps_HeapMem_getStats__E)
                  000138a4    00000004     ti.uia.loggers.aem4f : LoggerStopMode.oem4f (.text:ti_uia_loggers_LoggerStopMode_getPriority__E)
                  000138a8    0000004c     sysbios.aem4f : BIOS.obj (.text:ti_sysbios_knl_Swi_runLoop__I)
                  000138f4    00000004     ti.uia.loggers.aem4f : LoggerStopMode.oem4f (.text:ti_uia_loggers_LoggerStopMode_getTransferType__E)
                  000138f8    0000004c     sysbios.aem4f : BIOS.obj (.text:ti_sysbios_knl_Task_allBlockedFunction__I)
                  00013944    0000004c     ti.uia.loggers.aem4f : LoggerStopMode.oem4f (.text:ti_uia_loggers_LoggerStopMode_Module_startup__E)
                  00013990    0000004a     netctrl_min_ipv4.aem4f : netsrv.oem4f (.text:ServiceKill)
                  000139da    0000004a     stk.aem4f : sock.oem4f (.text:SockDisconnect)
                  00013a24    0000004a               : timer.oem4f (.text:TimerNew)
                  00013a6e    00000048     nettool_ipv4.aem4f : config.oem4f (.text:CfgNew)
                  00013ab6    00000002     --HOLE-- [fill = 0]
                  00013ab8    00000048     driverlib.lib : gpio.obj (.text:GPIOPinConfigure)
                  00013b00    00000048     stk.aem4f : lli.oem4f (.text:LLIMsg)
                  00013b48    00000048               : node.oem4f (.text:NodeWalk)
                  00013b90    00000048               : rawethsock_pcb.oem4f (.text:RawEthSockPcbDetach)
                  00013bd8    00000048               : sockpcb.oem4f (.text:SockPcbResolveChain)
                  00013c20    00000048               : tcpprot.oem4f (.text:TcpDrop)
                  00013c68    00000048               : lli.oem4f (.text:_LLIExpListInsert)
                  00013cb0    00000048               : rtable.oem4f (.text:_RtExpListInsert)
                  00013cf8    00000048     driverlib.lib : sysctl.obj (.text:_SysCtlFrequencyGet)
                  00013d40    00000048     stk.aem4f : file.oem4f (.text:fdint_lockfd)
                  00013d88    00000048     sysbios.aem4f : BIOS.obj (.text:ti_sysbios_family_arm_m3_Hwi_disableInterrupt__E)
                  00013dd0    00000048                   : BIOS.obj (.text:ti_sysbios_family_arm_m3_Hwi_enableInterrupt__E)
                  00013e18    00000048                   : BIOS.obj (.text:ti_sysbios_family_arm_m3_Hwi_excReserved__I)
                  00013e60    00000048                   : BIOS.obj (.text:ti_sysbios_knl_Task_deleteTerminatedTasksFunc__I)
                  00013ea8    00000048                   : BIOS.obj (.text:ti_sysbios_utils_Load_taskDeleteHook__E)
                  00013ef0    00000048     driverlib.lib : udma.obj (.text:uDMAChannelAttributeDisable)
                  00013f38    00000048                   : udma.obj (.text:uDMAChannelAttributeEnable)
                  00013f80    00000046     nettool_ipv4.aem4f : ipaddr.oem4f (.text:NtIfIdx2Ip)
                  00013fc6    00000046     stk.aem4f : rawethsock.oem4f (.text:RawEthSockSend)
                  0001400c    00000046               : tcpprot.oem4f (.text:TcpPrCtlError)
                  00014052    00000046     os.aem4f : mem.oem4f (.text:mmZeroInit)
                  00014098    00000046     ti.targets.arm.rtsarm.aem4f : Core-params.oem4f (.text:xdc_runtime_Core_assignParams__I)
                  000140de    00000002     --HOLE-- [fill = 0]
                  000140e0    00000044     drivers_tivaware.aem4f : EMACSnow.oem4f (.text:EMACSnow_processTransmitted)
                  00014124    00000044     stk.aem4f : icmp.oem4f (.text:ICMPChecksum)
                  00014168    00000044               : ipfrag.oem4f (.text:IPReasmFree)
                  000141ac    00000044               : lli.oem4f (.text:LLIGetValidTime)
                  000141f0    00000044               : rtable.oem4f (.text:RouteMsg)
                  00014234    00000044               : rtable.oem4f (.text:RtWalkEnd)
                  00014278    00000044               : sockpcb.oem4f (.text:SockPcbDetach)
                  000142bc    00000044               : timer.oem4f (.text:TimerListInsert)
                  00014300    00000044     hal_timer_bios.aem4f : lltimer.oem4f (.text:llTimerGetTime)
                  00014344    00000004     ti.targets.arm.rtsarm.aem4f : Error.oem4f (.text:xdc_runtime_Error_getMsg__E)
                  00014348    00000044     sysbios.aem4f : BIOS.obj (.text:ti_sysbios_family_arm_lm4_Timer_stop__E)
                  0001438c    00000004     ti.targets.arm.rtsarm.aem4f : Error.oem4f (.text:xdc_runtime_Error_getSite__E)
                  00014390    00000044     sysbios.aem4f : BIOS.obj (.text:ti_sysbios_family_arm_m3_Hwi_getStackInfo__E)
                  000143d4    00000004     RTOS_16eth_pem4f.oem4f (.text:xdc_runtime_System_Module_GateProxy_enter__E)
                  000143d8    00000044     sysbios.aem4f : BIOS.obj (.text:ti_sysbios_utils_Load_removeTask__E)
                  0001441c    00000004     RTOS_16eth_pem4f.oem4f (.text:xdc_runtime_System_Module_GateProxy_leave__E)
                  00014420    00000044     sysbios.aem4f : BIOS.obj (.text:ti_sysbios_utils_Load_swiBeginHook__E)
                  00014464    00000044     ti.uia.loggers.aem4f : LoggerStopMode.oem4f (.text:ti_uia_loggers_LoggerStopMode_initBuffer__I)
                  000144a8    00000044     ti.targets.arm.rtsarm.aem4f : Error.oem4f (.text:xdc_runtime_Error_setX__E)
                  000144ec    00000044                                 : SysMin.oem4f (.text:xdc_runtime_SysMin_flush__E)
                  00014530    00000044                                 : Text.oem4f (.text:xdc_runtime_Text_xprintf__I)
                  00014574    00000042     stk.aem4f : socket.oem4f (.text:NDK_listen)
                  000145b6    00000042               : tcpprot.oem4f (.text:TcpPrSendOOB)
                  000145f8    00000042               : fileuser.oem4f (.text:fdCloseSession)
                  0001463a    00000002     --HOLE-- [fill = 0]
                  0001463c    00000040               : lliin.oem4f (.text:LLIValidateRoute)
                  0001467c    00000040               : pbm.oem4f (.text:PBM_copy)
                  000146bc    00000040               : sockpcb.oem4f (.text:SockPcbRtChange)
                  000146fc    00000040               : tcpprot.oem4f (.text:TcpPrSend)
                  0001473c    00000040     rtsv7M4_T_le_v4SPD16_eabi.lib : u_divt2.obj (.text)
                  0001477c    00000004     ti.targets.arm.rtsarm.aem4f : System.oem4f (.text:xdc_runtime_System_aprintf_va__F)
                  00014780    00000040     sysbios.aem4f : BIOS.obj (.text:ti_sysbios_family_arm_lm4_Timer_startup__E)
                  000147c0    0000003e     driverlib.lib : adc.obj (.text:ADCSequenceConfigure)
                  000147fe    0000003e     nettool_ipv4.aem4f : dhcpmain.oem4f (.text:DHCPClose)
                  0001483c    0000003e     stk.aem4f : nimu.oem4f (.text:NIMUAllocateName)
                  0001487a    0000003e     os.aem4f : task.oem4f (.text:TaskCreate)
                  000148b8    0000003e     stk.aem4f : tcpprot.oem4f (.text:TcpPrDisconnect)
                  000148f6    0000003e               : file.oem4f (.text:fdint_unlockfd)
                  00014934    0000003c     nettool_ipv4.aem4f : config.oem4f (.text:CfgEntryGetData)
                  00014970    0000003c     driverlib.lib : emac.obj (.text:EMACIntDisable)
                  000149ac    0000003c     stk.aem4f : node.oem4f (.text:NodeUpdatePL)
                  000149e8    0000003c               : rtable.oem4f (.text:RtWalkBegin)
                  00014a24    0000003c               : tcpprot.oem4f (.text:TcpPrConnect)
                  00014a60    0000003c               : tcptime.oem4f (.text:TcpSetPersist)
                  00014a9c    0000003c               : rtc.oem4f (.text:_RTCSendRtAdv)
                  00014ad8    0000003c               : rtable.oem4f (.text:_RtNodeRemove)
                  00014b14    0000003c     hal_timer_bios.aem4f : lltimer.oem4f (.text:_llTimerInit)
                  00014b50    0000003c     sysbios.aem4f : BIOS.obj (.text:ti_sysbios_family_arm_m3_Hwi_excSvCall__I)
                  00014b8c    00000004     ti.targets.arm.rtsarm.aem4f : System.oem4f (.text:xdc_runtime_System_printf_va__F)
                  00014b90    0000003c     sysbios.aem4f : BIOS.obj (.text:ti_sysbios_heaps_HeapMem_init__I)
                  00014bcc    00000004     --HOLE-- [fill = 0]
                  00014bd0    0000003c                   : BIOS.obj (.text:ti_sysbios_knl_Swi_startup__E)
                  00014c0c    00000004     --HOLE-- [fill = 0]
                  00014c10    0000003c                   : BIOS.obj (.text:ti_sysbios_utils_Load_hwiEndHook__E)
                  00014c4c    0000003a     driverlib.lib : emac.obj (.text:EMACIntEnable)
                  00014c86    00000002     --HOLE-- [fill = 0]
                  00014c88    00000038                   : emac.obj (.text:EMACConfigGet)
                  00014cc0    00000038     stk.aem4f : ipfrag.oem4f (.text:IPReasmTimeout)
                  00014cf8    00000038               : node.oem4f (.text:NodeGetRt)
                  00014d30    00000038     driverlib.lib : sysctl.obj (.text:SysCtlPeripheralReady)
                  00014d68    00000038     stk.aem4f : tcpprot.oem4f (.text:TcpClose)
                  00014da0    00000038               : timer.oem4f (.text:TimerHSTick)
                  00014dd8    00000038     nettool_ipv4.aem4f : dhcpbild.oem4f (.text:dhcpBuildDiscover)
                  00014e10    00000038                        : dhcptags.oem4f (.text:dhcpOptionsClear)
                  00014e48    00000038     stk.aem4f : file.oem4f (.text:fdint_waitevent)
                  00014e80    00000038     sysbios.aem4f : BIOS.obj (.text:ti_sysbios_family_arm_m3_Hwi_excNoIsr__I)
                  00014eb8    00000038     RTOS_16eth_pem4f.oem4f (.text:ti_sysbios_knl_Clock_create)
                  00014ef0    00000038     sysbios.aem4f : BIOS.obj (.text:ti_sysbios_knl_Task_processVitalTaskFlag__I)
                  00014f28    00000038     ti.targets.arm.rtsarm.aem4f : SysMin.oem4f (.text:xdc_runtime_SysMin_putch__E)
                  00014f60    00000038                                 : System.oem4f (.text:xdc_runtime_System_atexit__E)
                  00014f98    00000036     stk.aem4f : ip.oem4f (.text:IPChecksum)
                  00014fce    00000002     --HOLE-- [fill = 0]
                  00014fd0    00000034     nettool_ipv4.aem4f : config.oem4f (.text:CfgSetService)
                  00015004    00000034     driverlib.lib : emac.obj (.text:EMACConfigSet)
                  00015038    00000034                   : emac.obj (.text:EMACIntClear)
                  0001506c    00000034     drivers_tivaware.aem4f : EMACSnow.oem4f (.text:EMACSnow_emacPoll)
                  000150a0    00000034                            : EMACSnow.oem4f (.text:EMACSnow_isLinkUp)
                  000150d4    00000034                            : EMAC.oem4f (.text:EMAC_init)
                  00015108    00000034     stk.aem4f : exec.oem4f (.text:ExecClose)
                  0001513c    00000034               : nimu.oem4f (.text:NIMUFindByName)
                  00015170    00000034               : nimu.oem4f (.text:NIMUInit)
                  000151a4    00000034               : rawethsock.oem4f (.text:RawEthSockNotify)
                  000151d8    00000034               : sockprot.oem4f (.text:SockPrCtlError)
                  0001520c    00000034     driverlib.lib : sysctl.obj (.text:SysCtlPeripheralEnable)
                  00015240    00000034     os.aem4f : mem.oem4f (.text:mmUnInitPage)
                  00015274    00000004     --HOLE-- [fill = 0]
                  00015278    00000034     sysbios.aem4f : BIOS.obj (.text:ti_sysbios_family_arm_m3_Hwi_excNmi__I)
                  000152ac    00000004     --HOLE-- [fill = 0]
                  000152b0    00000034                   : BIOS.obj (.text:ti_sysbios_hal_Hwi_checkStack)
                  000152e4    00000034     RTOS_16eth_pem4f.oem4f (.text:ti_sysbios_knl_Semaphore_create)
                  00015318    00000034     sysbios.aem4f : BIOS.obj (.text:ti_sysbios_utils_Load_swiEndHook__E)
                  0001534c    00000034     ti.uia.loggers.aem4f : LoggerStopMode.oem4f (.text:ti_uia_loggers_LoggerStopMode_reset__E)
                  00015380    00000034     ti.targets.arm.rtsarm.aem4f : Core-label.oem4f (.text:xdc_runtime_Core_assignLabel__I)
                  000153b4    00000033                                 : Text.oem4f (.text:xdc_runtime_Text_printVisFxn__I)
                  000153e7    00000001     --HOLE-- [fill = 0]
                  000153e8    00000032     nettool_ipv4.aem4f : config.oem4f (.text:CfgGetImmediate)
                  0001541a    00000032     stk.aem4f : route.oem4f (.text:RtDeRef)
                  0001544c    00000032               : route.oem4f (.text:RtSetFailure)
                  0001547e    00000032               : sb.oem4f (.text:SBFlush)
                  000154b0    00000032               : sb.oem4f (.text:SBSetMax)
                  000154e2    00000032               : sock.oem4f (.text:SockIntAbort)
                  00015514    00000032     nettool_ipv4.aem4f : config.oem4f (.text:_CfgAcquire)
                  00015546    00000032                        : dhcpsm.oem4f (.text:dhcpIPRemove)
                  00015578    00000032     sysbios.aem4f : BIOS.obj (.text:ti_sysbios_hal_Hwi_initStack)
                  000155aa    00000006     driverlib.lib : emac.obj (.text:EMACRxDMADescriptorListSet)
                  000155b0    00000032     sysbios.aem4f : BIOS.obj (.text:ti_sysbios_knl_Semaphore_pendTimeout__I)
                  000155e2    00000030     driverlib.lib : emac.obj (.text:EMACAddrSet)
                  00015612    00000002     --HOLE-- [fill = 0]
                  00015614    00000030     drivers_tivaware.aem4f : EMACSnow.oem4f (.text:EMACSnow_handlePackets)
                  00015644    00000030     netctrl_min_ipv4.aem4f : netsrv.oem4f (.text:NS_PreBoot)
                  00015674    00000030     stk.aem4f : sock.oem4f (.text:SockBind)
                  000156a4    00000030               : sock.oem4f (.text:SockGetName)
                  000156d4    00000030     nettool_ipv4.aem4f : dhcpsock.oem4f (.text:dhcpPacketSend)
                  00015704    00000030     stk.aem4f : listlib.oem4f (.text:list_remove_node)
                  00015734    00000030     RTOS_16eth_pem4f.oem4f (.text:ti_sysbios_BIOS_atExitFunc__I)
                  00015764    00000004     --HOLE-- [fill = 0]
                  00015768    00000030     sysbios.aem4f : BIOS.obj (.text:ti_sysbios_family_arm_m3_TaskSupport_start__E)
                  00015798    00000030     RTOS_16eth_pem4f.oem4f (.text:ti_sysbios_gates_GateHwi_Object__create__S)
                  000157c8    00000030     RTOS_16eth_pem4f.oem4f (.text:ti_sysbios_gates_GateMutex_Object__create__S)
                  000157f8    00000030     RTOS_16eth_pem4f.oem4f (.text:ti_sysbios_heaps_HeapMem_Object__create__S)
                  00015828    00000030     RTOS_16eth_pem4f.oem4f (.text:ti_sysbios_knl_Semaphore_construct)
                  00015858    00000030     RTOS_16eth_pem4f.oem4f (.text:ti_uia_loggers_LoggerStopMode_Object__create__S)
                  00015888    00000030     ti.targets.arm.rtsarm.aem4f : SysMin.oem4f (.text:xdc_runtime_SysMin_abort__E)
                  000158b8    00000030                                 : System.oem4f (.text:xdc_runtime_System_processAtExit__E)
                  000158e8    0000002e     stk.aem4f : sb.oem4f (.text:SBFree)
                  00015916    0000002c     driverlib.lib : emac.obj (.text:EMACIntStatus)
                  00015942    0000002c     stk.aem4f : file.oem4f (.text:FdSignalEvent)
                  0001596e    00000002     --HOLE-- [fill = 0]
                  00015970    0000002c               : igmp.oem4f (.text:IGMPTestGroup)
                  0001599c    0000002c     os.aem4f : task.oem4f (.text:NDK_hookCreate)
                  000159c8    0000002c     stk.aem4f : nimu.oem4f (.text:NIMUAllocateIndex)
                  000159f4    0000002c               : nimu.oem4f (.text:NIMUPacketServiceCheck)
                  00015a20    0000002c               : pipe.oem4f (.text:PipeClose)
                  00015a4c    0000002c               : sockpcb.oem4f (.text:SockPcbAttach)
                  00015a78    0000002c               : lli.oem4f (.text:_LLIExpListRemove)
                  00015aa4    0000002c               : lli.oem4f (.text:_LLITimeoutFlush)
                  00015ad0    0000002c               : rtable.oem4f (.text:_RtExpListRemove)
                  00015afc    0000002c     RTOS_16eth_pem4f.oem4f (.text:ti_sysbios_knl_Clock_doTick__I)
                  00015b28    0000002c     RTOS_16eth_pem4f.oem4f (.text:ti_sysbios_knl_Queue_construct)
                  00015b54    00000004     --HOLE-- [fill = 0]
                  00015b58    0000002c     sysbios.aem4f : BIOS.obj (.text:ti_sysbios_knl_Task_restore__E)
                  00015b84    0000002c     driverlib.lib : udma.obj (.text:uDMAChannelAssign)
                  00015bb0    0000002c     ti.targets.arm.rtsarm.aem4f : Text.oem4f (.text:xdc_runtime_Text_cordText__E)
                  00015bdc    0000002a     driverlib.lib : gpio.obj (.text:GPIODirModeSet)
                  00015c06    0000002a     stk.aem4f : pbm.oem4f (.text:PBMQ_deq)
                  00015c30    0000002a     netctrl_min_ipv4.aem4f : netsrv.oem4f (.text:ServiceCallback)
                  00015c5a    0000002a     nettool_ipv4.aem4f : config.oem4f (.text:_CfgRelease)
                  00015c84    0000002a     ti.targets.arm.rtsarm.aem4f : System.oem4f (.text:xdc_runtime_System_putchar__I)
                  00015cae    00000002     --HOLE-- [fill = 0]
                  00015cb0    00000028     stk.aem4f : bind.oem4f (.text:BindFindByNet)
                  00015cd8    00000028               : lli.oem4f (.text:LLIFree)
                  00015d00    00000028     netctrl_min_ipv4.aem4f : netctrl.oem4f (.text:NC_SystemClose)
                  00015d28    00000028     stk.aem4f : nimu.oem4f (.text:NIMUCreatePacket)
                  00015d50    00000028               : nimu.oem4f (.text:NIMUPacketService)
                  00015d78    00000028               : tcpin.oem4f (.text:TcpEnterTimeWait)
                  00015da0    00000028               : timer.oem4f (.text:TimerListRemove)
                  00015dc8    00000028               : vlan.oem4f (.text:VLANFindSourceInterface)
                  00015df0    00000028               : vlan.oem4f (.text:VLANInit)
                  00015e18    00000028     nettool_ipv4.aem4f : dhcpsock.oem4f (.text:dhcpPacketReceive)
                  00015e40    00000028     rtsv7M4_T_le_v4SPD16_eabi.lib : e_sqrtf.obj (.text)
                  00015e68    00000028     drivers_tivaware.aem4f : EMACSnow.oem4f (.text:signalLinkChange)
                  00015e90    00000028     RTOS_16eth_pem4f.oem4f (.text:ti_sysbios_BIOS_startFunc__I)
                  00015eb8    00000028     driverlib.lib : udma.obj (.text:uDMAChannelModeGet)
                  00015ee0    00000026     nettool_ipv4.aem4f : config.oem4f (.text:CfgEntryInfo)
                  00015f06    00000026     driverlib.lib : emac.obj (.text:EMACPHYRead)
                  00015f2c    00000026                   : emac.obj (.text:EMACPHYWrite)
                  00015f52    00000026     stk.aem4f : rawethsock.oem4f (.text:RawEthSockClose)
                  00015f78    00000026     RTOS_16eth_pem4f.oem4f (.text:ti_ndk_config_udp_init)
                  00015f9e    00000026     sysbios.aem4f : m3_Hwi_asm.obj (.text:ti_sysbios_family_arm_m3_Hwi_pendSV__I)
                  00015fc4    00000026     ti.targets.arm.rtsarm.aem4f : System.oem4f (.text:xdc_runtime_System_avprintf__E)
                  00015fea    00000002     --HOLE-- [fill = 0]
                  00015fec    00000024     stk.aem4f : bind.oem4f (.text:BindFindByHost)
                  00016010    00000024               : bind.oem4f (.text:BindGetIFByDBCast)
                  00016034    00000024     drivers_tivaware.aem4f : EMACSnow.oem4f (.text:EMACSnow_pkt_service)
                  00016058    00000024                            : EMACSnow.oem4f (.text:EMACSnow_primeRx)
                  0001607c    00000024     stk.aem4f : exec.oem4f (.text:ExecTimer)
                  000160a0    00000024               : nimu.oem4f (.text:NIMUFindByIndex)
                  000160c4    00000024               : rtc.oem4f (.text:RTCAddHook)
                  000160e8    00000024               : rawethsock_pcb.oem4f (.text:RawEthSockPcbFind)
                  0001610c    00000024               : route.oem4f (.text:RtFree)
                  00016130    00000024               : route.oem4f (.text:RtSetTimeout)
                  00016154    00000024               : sockpcb.oem4f (.text:SockPcbCleanup)
                  00016178    00000024               : tcpprot.oem4f (.text:TcpPrListen)
                  0001619c    00000024               : tcptime.oem4f (.text:TcpTimeoutWait2)
                  000161c0    00000024     nettool_ipv4.aem4f : config.oem4f (.text:_CfgEntryProcess)
                  000161e4    00000024     RTOS_16eth_pem4f.oem4f (.text:ti_sysbios_BIOS_registerRTSLock__I)
                  00016208    00000024     RTOS_16eth_pem4f.oem4f (.text:ti_sysbios_BIOS_removeRTSLock__I)
                  0001622c    00000004     --HOLE-- [fill = 0]
                  00016230    00000024     sysbios.aem4f : BIOS.obj (.text:ti_sysbios_family_arm_m3_Hwi_doTaskRestore__I)
                  00016254    00000024     RTOS_16eth_pem4f.oem4f (.text:ti_sysbios_gates_GateMutex_Object__delete__S)
                  00016278    00000024     sysbios.aem4f : BIOS.obj (.text:ti_sysbios_knl_Clock_Module_startup__E)
                  0001629c    00000024     RTOS_16eth_pem4f.oem4f (.text:ti_sysbios_knl_Semaphore_Object__delete__S)
                  000162c0    00000024     driverlib.lib : udma.obj (.text:uDMAChannelControlSet)
                  000162e4    00000024     ti.targets.arm.rtsarm.aem4f : System.oem4f (.text:xdc_runtime_System_vprintf__E)
                  00016308    00000022     nettool_ipv4.aem4f : config.oem4f (.text:CfgEntryRef)
                  0001632a    00000022     stk.aem4f : vlan.oem4f (.text:VLANFindNode)
                  0001634c    00000022     main16eth.obj (.text:setsockopt)
                  0001636e    00000002     --HOLE-- [fill = 0]
                  00016370    00000022     sysbios.aem4f : BIOS.obj (.text:ti_sysbios_family_arm_lm4_Timer_write__I)
                  00016392    00000022     RTOS_16eth_pem4f.oem4f (.text:xdc_runtime_SysMin_output__I)
                  000163b4    00000020     netctrl_min_ipv4.aem4f : netctrl.oem4f (.text:NC_BootComplete)
                  000163d4    00000020     stk.aem4f : nimu.oem4f (.text:NIMUGetNumOfObject)
                  000163f4    00000020               : rtc.oem4f (.text:RTCRemoveHook)
                  00016414    00000020               : tcp.oem4f (.text:TcpTimeoutRemove)
                  00016434    00000020     Boot.aem4f : Boot_sysctl.oem4f (.text:_SysCtlMemTimingGet)
                  00016454    00000020     RTOS_16eth_pem4f.oem4f (.text:ti_sysbios_BIOS_rtsLock__I)
                  00016474    00000020     RTOS_16eth_pem4f.oem4f (.text:ti_sysbios_family_arm_m3_Hwi_Object__delete__S)
                  00016494    00000020     sysbios.aem4f : m3_Hwi_asm.obj (.text:ti_sysbios_family_arm_m3_Hwi_excHandlerAsm__I)
                  000164b4    00000004     --HOLE-- [fill = 0]
                  000164b8    00000020                   : BIOS.obj (.text:ti_sysbios_family_arm_m3_Hwi_excHandler__I)
                  000164d8    00000020     RTOS_16eth_pem4f.oem4f (.text:ti_sysbios_gates_GateHwi_Object__delete__S)
                  000164f8    00000020     RTOS_16eth_pem4f.oem4f (.text:ti_sysbios_heaps_HeapMem_Object__delete__S)
                  00016518    00000020     sysbios.aem4f : BIOS.obj (.text:ti_sysbios_knl_Idle_run__E)
                  00016538    00000020     RTOS_16eth_pem4f.oem4f (.text:ti_sysbios_knl_Semaphore_Object__destruct__S)
                  00016558    00000020     RTOS_16eth_pem4f.oem4f (.text:ti_sysbios_knl_Swi_Object__delete__S)
                  00016578    00000020     RTOS_16eth_pem4f.oem4f (.text:ti_sysbios_knl_Task_Object__delete__S)
                  00016598    00000020     RTOS_16eth_pem4f.oem4f (.text:ti_uia_loggers_LoggerStopMode_Object__delete__S)
                  000165b8    00000020     ti.targets.arm.rtsarm.aem4f : Registry.oem4f (.text:xdc_runtime_Registry_findById__E)
                  000165d8    00000020                                 : SysMin.oem4f (.text:xdc_runtime_SysMin_Module_startup__E)
                  000165f8    0000001e     stk.aem4f : listlib.oem4f (.text:list_remove)
                  00016616    0000001e     main16eth.obj (.text:main)
                  00016634    0000001e     main16eth.obj (.text:recv)
                  00016652    0000001e     main16eth.obj (.text:send)
                  00016670    0000001e     RTOS_16eth_pem4f.oem4f (.text:ti_sysbios_BIOS_errorRaiseHook__I)
                  0001668e    0000001e     sysbios.aem4f : m3_Hwi_asm_switch.obj (.text:ti_sysbios_family_xxx_Hwi_switchAndRunFunc)
                  000166ac    0000001c     stk.aem4f : bind.oem4f (.text:BindFindByIF)
                  000166c8    0000001c               : exec.oem4f (.text:ExecBroadcast)
                  000166e4    0000001c     os.aem4f : ossys.oem4f (.text:NDK_sprintf)
                  00016700    0000001c     stk.aem4f : nimu.oem4f (.text:NIMUAddHeader)
                  0001671c    0000001c               : sockprot.oem4f (.text:SockPrDetach)
                  00016738    0000001c     os.aem4f : task.oem4f (.text:TaskDestroy)
                  00016754    0000001c     driverlib.lib : sysctl.obj (.text:_SysCtlMemTimingGet)
                  00016770    0000001c     drivers_tivaware.aem4f : GPIOTiva.oem4f (.text:getGpioIntIndex)
                  0001678c    0000001c     RTOS_16eth_pem4f.oem4f (.text:ti_ndk_config_global_taskCreateHook)
                  000167a8    0000001c     sysbios.aem4f : BIOS.obj (.text:ti_sysbios_gates_GateMutex_Instance_init__E)
                  000167c4    0000001c     RTOS_16eth_pem4f.oem4f (.text:ti_sysbios_knl_Queue_Object__destruct__S)
                  000167e0    0000001c     sysbios.aem4f : BIOS.obj (.text:ti_sysbios_knl_Task_enter__I)
                  000167fc    0000001c     ti.uia.loggers.aem4f : LoggerStopMode.oem4f (.text:ti_uia_loggers_LoggerStopMode_Instance_init__E)
                  00016818    0000001c     ti.targets.arm.rtsarm.aem4f : Error.oem4f (.text:xdc_runtime_Error_raiseX__E)
                  00016834    0000001c                                 : Memory.oem4f (.text:xdc_runtime_Memory_valloc__E)
                  00016850    0000001c                                 : SysMin.oem4f (.text:xdc_runtime_SysMin_exit__E)
                  0001686c    0000001c                                 : System.oem4f (.text:xdc_runtime_System_abort__E)
                  00016888    0000001a     stk.aem4f : bind.oem4f (.text:BindGetIP)
                  000168a2    0000001a               : sockint.oem4f (.text:SockSetOOBMark)
                  000168bc    0000001a               : file.oem4f (.text:fdint_getfdt)
                  000168d6    0000001a     RTOS_16eth_pem4f.oem4f (.text:ti_sysbios_family_arm_m3_Hwi_Handle__label__S)
                  000168f0    0000001a     RTOS_16eth_pem4f.oem4f (.text:ti_sysbios_gates_GateHwi_Handle__label__S)
                  0001690a    0000001a     RTOS_16eth_pem4f.oem4f (.text:ti_sysbios_gates_GateMutex_Handle__label__S)
                  00016924    0000001a     RTOS_16eth_pem4f.oem4f (.text:ti_sysbios_heaps_HeapMem_Handle__label__S)
                  0001693e    0000001a     RTOS_16eth_pem4f.oem4f (.text:ti_sysbios_knl_Swi_Handle__label__S)
                  00016958    0000001a     RTOS_16eth_pem4f.oem4f (.text:ti_sysbios_knl_Task_Handle__label__S)
                  00016972    00000006     driverlib.lib : emac.obj (.text:EMACTxDMADescriptorListSet)
                  00016978    0000001a     sysbios.aem4f : BIOS.obj (.text:ti_sysbios_knl_Task_sleepTimeout__I)
                  00016992    0000001a     RTOS_16eth_pem4f.oem4f (.text:ti_uia_loggers_LoggerStopMode_Handle__label__S)
                  000169ac    0000001a     RTOS_16eth_pem4f.oem4f (.text:xdc_runtime_System_aprintf__E)
                  000169c6    0000001a     RTOS_16eth_pem4f.oem4f (.text:xdc_runtime_System_printf__E)
                  000169e0    00000018     driverlib.lib : adc.obj (.text:ADCClockConfigSet)
                  000169f8    00000018     drivers_tivaware.aem4f : EMACSnow.oem4f (.text:EMACSnow_emacSend)
                  00016a10    00000018     stk.aem4f : ip.oem4f (.text:IPRtChange)
                  00016a28    00000018     main16eth.obj (.text:InitSamples)
                  00016a40    00000018     stk.aem4f : rawethsock_pcb.oem4f (.text:RawEthSockPcbCleanup)
                  00016a58    00000018     nettool_ipv4.aem4f : ipaddr.oem4f (.text:RouteHook)
                  00016a70    00000018     stk.aem4f : tcpin.oem4f (.text:SEQ_GEQ)
                  00016a88    00000018               : tcpout.oem4f (.text:SEQ_GEQ)
                  00016aa0    00000018               : tcpin.oem4f (.text:SEQ_GT)
                  00016ab8    00000018               : tcpout.oem4f (.text:SEQ_GT)
                  00016ad0    00000018               : tcpin.oem4f (.text:SEQ_LEQ)
                  00016ae8    00000018               : tcpout.oem4f (.text:SEQ_LEQ)
                  00016b00    00000018               : tcpin.oem4f (.text:SEQ_LT)
                  00016b18    00000018               : tcpout.oem4f (.text:SEQ_LT)
                  00016b30    00000018               : tcp.oem4f (.text:TcpTimeoutAdd)
                  00016b48    00000018     nettool_ipv4.aem4f : dhcpsock.oem4f (.text:dhcpSocketClose)
                  00016b60    00000018     stk.aem4f : listlib.oem4f (.text:list_add)
                  00016b78    00000018     rtsv7M4_T_le_v4SPD16_eabi.lib : args_main.obj (.text)
                  00016b90    00000018                                   : strcmp.obj (.text)
                  00016ba8    00000018     RTOS_16eth_pem4f.oem4f (.text:ti_sysbios_BIOS_rtsUnlock__I)
                  00016bc0    00000018     RTOS_16eth_pem4f.oem4f (.text:ti_sysbios_family_arm_lm4_Timer_Module__startupDone__F)
                  00016bd8    00000018     RTOS_16eth_pem4f.oem4f (.text:ti_sysbios_family_arm_m3_Hwi_Module__startupDone__F)
                  00016bf0    00000018     sysbios.aem4f : m3_TaskSupport_asm.obj (.text:ti_sysbios_family_arm_m3_TaskSupport_swap__E)
                  00016c08    00000018                   : BIOS.obj (.text:ti_sysbios_gates_GateMutex_leave__E)
                  00016c20    00000018     driverlib.lib : udma.obj (.text:uDMAChannelEnable)
                  00016c38    00000018     ti.targets.arm.rtsarm.aem4f : Error.oem4f (.text:xdc_runtime_Error_check__E)
                  00016c50    00000018                                 : System.oem4f (.text:xdc_runtime_System_exit__E)
                  00016c68    00000018                                 : Text.oem4f (.text:xdc_runtime_Text_ropeText__E)
                  00016c80    00000016     driverlib.lib : emac.obj (.text:EMACReset)
                  00016c96    00000016                   : emac.obj (.text:EMACRxEnable)
                  00016cac    00000016                   : emac.obj (.text:EMACTxEnable)
                  00016cc2    00000016     stk.aem4f : file.oem4f (.text:fdint_freefdt)
                  00016cd8    00000016     RTOS_16eth_pem4f.oem4f (.text:ti_sysbios_BIOS_exitFunc__I)
                  00016cee    00000016     main16eth.obj (.text:ti_sysbios_knl_Task_Params_init)
                  00016d04    00000016     tcpEchoHooks.obj (.text:ti_sysbios_knl_Task_Params_init)
                  00016d1a    00000016     ti.uia.loggers.aem4f : LoggerStopMode.oem4f (.text:ti_uia_loggers_LoggerStopMode_disable__E)
                  00016d30    00000016                          : LoggerStopMode.oem4f (.text:ti_uia_loggers_LoggerStopMode_enable__E)
                  00016d46    00000016     ti.targets.arm.rtsarm.aem4f : System.oem4f (.text:xdc_runtime_System_vsprintf__E)
                  00016d5c    00000014     stk.aem4f : bind.oem4f (.text:BindIPHost2IF)
                  00016d70    00000014     driverlib.lib : flash.obj (.text:FlashUserGet)
                  00016d84    00000014     main16eth.obj (.text:HeartBeat_Idle)
                  00016d98    00000014     netctrl_min_ipv4.aem4f : netctrl.oem4f (.text:NC_NetStop)
                  00016dac    00000014     os.aem4f : task.oem4f (.text:NDK_hookExit)
                  00016dc0    00000014     stk.aem4f : nimu.oem4f (.text:NIMUSendPacket)
                  00016dd4    00000014     nettool_ipv4.aem4f : ipaddr.oem4f (.text:NtRemoveNetwork)
                  00016de8    00000014     stk.aem4f : rawethsock_pcb.oem4f (.text:RawEthSockPcbInit)
                  00016dfc    00000014               : timer.oem4f (.text:TimerFree)
                  00016e10    00000014     main16eth.obj (.text:accept)
                  00016e24    00000014     main16eth.obj (.text:bind)
                  00016e38    00000014     rtsv7M4_T_le_v4SPD16_eabi.lib : _lock.obj (.text)
                  00016e4c    00000014                                   : strcpy.obj (.text)
                  00016e60    00000014                                   : strlen.obj (.text)
                  00016e74    00000014     main16eth.obj (.text:socket)
                  00016e88    00000014     RTOS_16eth_pem4f.oem4f (.text:ti_ndk_config_global_taskExitHook)
                  00016e9c    00000014     RTOS_16eth_pem4f.oem4f (.text:ti_sysbios_family_arm_m3_Hwi_Object__get__S)
                  00016eb0    00000014     sysbios.aem4f : BIOS.obj (.text:ti_sysbios_family_arm_m3_Hwi_switchFromBootStack__E)
                  00016ec4    00000014     RTOS_16eth_pem4f.oem4f (.text:ti_sysbios_heaps_HeapMem_Object__get__S)
                  00016ed8    00000014     RTOS_16eth_pem4f.oem4f (.text:ti_sysbios_knl_Swi_Object__get__S)
                  00016eec    00000014     RTOS_16eth_pem4f.oem4f (.text:ti_sysbios_knl_Task_Object__first__S)
                  00016f00    00000014     RTOS_16eth_pem4f.oem4f (.text:ti_sysbios_knl_Task_Object__get__S)
                  00016f14    00000014     RTOS_16eth_pem4f.oem4f (.text:ti_sysbios_knl_Task_Object__next__S)
                  00016f28    00000012     driverlib.lib : adc.obj (.text:ADCHardwareOversampleConfigure)
                  00016f3a    00000012                   : gpio.obj (.text:GPIOPinTypeADC)
                  00016f4c    00000012                   : gpio.obj (.text:GPIOPinTypeEthernetLED)
                  00016f5e    00000012     stk.aem4f : sockprot.oem4f (.text:SockPrAttach)
                  00016f70    00000012               : sockint.oem4f (.text:SockSetOOBData)
                  00016f82    00000012     driverlib.lib : timer.obj (.text:TimerLoadSet)
                  00016f94    00000012     nettool_ipv4.aem4f : inetaddr.oem4f (.text:inet_addr)
                  00016fa6    00000002     --HOLE-- [fill = 0]
                  00016fa8    00000012     sysbios.aem4f : BIOS.obj (.text:ti_sysbios_hal_Hwi_Module_startup__E)
                  00016fba    00000006     driverlib.lib : gpio.obj (.text:GPIOIntClear)
                  00016fc0    00000012     sysbios.aem4f : BIOS.obj (.text:ti_sysbios_knl_Semaphore_reset__E)
                  00016fd2    00000012     RTOS_16eth_pem4f.oem4f (.text:xdc_runtime_Startup_exec__I)
                  00016fe4    00000010     RTOS_16eth_pem4f.oem4f (.text:.bootCodeSection:ti_catalog_arm_cortexm4_tiva_ce_Boot_init__I)
                  00016ff4    00000010     driverlib.lib : adc.obj (.text:ADCSequenceDMAEnable)
                  00017004    00000010     stk.aem4f : bind.oem4f (.text:BindIF2IPHost)
                  00017014    00000010               : bind.oem4f (.text:BindIFNet2IPHost)
                  00017024    00000010     driverlib.lib : emac.obj (.text:EMACFrameFilterSet)
                  00017034    00000010     stk.aem4f : exec.oem4f (.text:ExecHRef)
                  00017044    00000010     driverlib.lib : interrupt.obj (.text:IntMasterDisable)
                  00017054    00000010                   : interrupt.obj (.text:IntMasterEnable)
                  00017064    00000010     netctrl_min_ipv4.aem4f : netctrl.oem4f (.text:NC_IPUpdate)
                  00017074    00000010     stk.aem4f : nimu.oem4f (.text:NIMUGetRsvdSizeInfo)
                  00017084    00000010     main16eth.obj (.text:listen)
                  00017094    00000004     --HOLE-- [fill = 0]
                  00017098    00000010     sysbios.aem4f : BIOS.obj (.text:ti_sysbios_BIOS_getCpuFreq__E)
                  000170a8    00000010                   : BIOS.obj (.text:ti_sysbios_BIOS_setThreadType__E)
                  000170b8    00000010                   : BIOS.obj (.text:ti_sysbios_BIOS_start__E)
                  000170c8    00000010                   : BIOS.obj (.text:ti_sysbios_family_arm_lm4_TimestampProvider_rolloverFunc__E)
                  000170d8    00000010                   : m3_TaskSupport_asm.obj (.text:ti_sysbios_family_arm_m3_TaskSupport_glue)
                  000170e8    00000010                   : BIOS.obj (.text:ti_sysbios_gates_GateMutex_Instance_finalize__E)
                  000170f8    00000010                   : BIOS.obj (.text:ti_sysbios_knl_Semaphore_Instance_finalize__E)
                  00017108    00000010                   : BIOS.obj (.text:ti_sysbios_knl_Swi_disable__E)
                  00017118    00000010                   : BIOS.obj (.text:ti_sysbios_knl_Task_disable__E)
                  00017128    00000010     RTOS_16eth_pem4f.oem4f (.text:ti_uia_loggers_LoggerStopMode_Object__get__S)
                  00017138    00000010     ti.uia.loggers.aem4f : LoggerStopMode.oem4f (.text:ti_uia_loggers_LoggerStopMode_isEmpty__E)
                  00017148    00000010     driverlib.lib : udma.obj (.text:uDMAEnable)
                  00017158    00000010     ti.targets.arm.rtsarm.aem4f : Gate.oem4f (.text:xdc_runtime_Gate_leaveSystem__E)
                  00017168    00000010                                 : Memory.oem4f (.text:xdc_runtime_Memory_free__E)
                  00017178    00000010                                 : SysMin.oem4f (.text:xdc_runtime_SysMin_ready__E)
                  00017188    00000010                                 : System.oem4f (.text:xdc_runtime_System_vsnprintf__E)
                  00017198    00000010     RTOS_16eth_pem4f.oem4f (.text:xdc_runtime_Text_visitRope__I)
                  000171a8    0000000e     driverlib.lib : adc.obj (.text:ADCSequenceDisable)
                  000171b6    0000000e                   : adc.obj (.text:ADCSequenceEnable)
                  000171c4    0000000e     drivers_tivaware.aem4f : EMACSnow.oem4f (.text:EMACSnow_emacioctl)
                  000171d2    0000000e     stk.aem4f : exec.oem4f (.text:ExecLowResource)
                  000171e0    0000000e     driverlib.lib : gpio.obj (.text:GPIOIntStatus)
                  000171ee    0000000e                   : timer.obj (.text:TimerEnable)
                  000171fc    0000000e     rtsv7M4_T_le_v4SPD16_eabi.lib : copy_decompress_none.obj (.text:decompress:none)
                  0001720a    00000006     driverlib.lib : gpio.obj (.text:GPIOPinRead)
                  00017210    0000000e     sysbios.aem4f : BIOS.obj (.text:ti_sysbios_knl_Idle_loop__E)
                  0001721e    00000002     --HOLE-- [fill = 0]
                  00017220    0000000e                   : BIOS.obj (.text:ti_sysbios_knl_Queue_empty__E)
                  0001722e    0000000c     driverlib.lib : adc.obj (.text:ADCReferenceSet)
                  0001723a    00000002     --HOLE-- [fill = 0]
                  0001723c    0000000c     stk.aem4f : bind.oem4f (.text:BindGetFirst)
                  00017248    0000000c     driverlib.lib : cpu.obj (.text:CPUcpsid)
                  00017254    0000000c                   : cpu.obj (.text:CPUcpsie)
                  00017260    0000000c     nettool_ipv4.aem4f : config.oem4f (.text:CfgSetDefault)
                  0001726c    0000000c     drivers_tivaware.aem4f : EMACSnow.oem4f (.text:EMACSnow_init)
                  00017278    0000000c     os.aem4f : task.oem4f (.text:NDK_hookInit)
                  00017284    0000000c     stk.aem4f : nimu.oem4f (.text:NIMUSetRsvdSizeInfo)
                  00017290    0000000c     os.aem4f : task.oem4f (.text:NotifyLowResource)
                  0001729c    0000000c     stk.aem4f : pbm.oem4f (.text:PBM_close)
                  000172a8    0000000c     os.aem4f : semaphore.oem4f (.text:SemDelete)
                  000172b4    0000000c     hal_timer_bios.aem4f : lltimer.oem4f (.text:_llTimerShutdown)
                  000172c0    0000000c     main16eth.obj (.text:close)
                  000172cc    0000000c     hal_timer_bios.aem4f : lltimer.oem4f (.text:llTimerGetStartTime)
                  000172d8    0000000c     sysbios.aem4f : BIOS.obj (.text:ti_sysbios_BIOS_getThreadType__E)
                  000172e4    00000004     --HOLE-- [fill = 0]
                  000172e8    0000000c                   : BIOS.obj (.text:ti_sysbios_family_arm_lm4_Timer_getMaxTicks__E)
                  000172f4    00000004     --HOLE-- [fill = 0]
                  000172f8    0000000c                   : BIOS.obj (.text:ti_sysbios_family_arm_lm4_TimestampProvider_startTimer__E)
                  00017304    0000000c     RTOS_16eth_pem4f.oem4f (.text:ti_sysbios_family_arm_m3_Hwi_Params__init__S)
                  00017310    0000000c     sysbios.aem4f : BIOS.obj (.text:ti_sysbios_family_arm_m3_Hwi_disableFxn__E)
                  0001731c    00000004     --HOLE-- [fill = 0]
                  00017320    0000000c                   : BIOS.obj (.text:ti_sysbios_family_arm_m3_TaskSupport_checkStack__E)
                  0001732c    00000004     --HOLE-- [fill = 0]
                  00017330    0000000c                   : BIOS.obj (.text:ti_sysbios_family_arm_m3_TaskSupport_getStackAlignment__E)
                  0001733c    00000004     --HOLE-- [fill = 0]
                  00017340    0000000c                   : BIOS.obj (.text:ti_sysbios_gates_GateHwi_enter__E)
                  0001734c    0000000c     RTOS_16eth_pem4f.oem4f (.text:ti_sysbios_knl_Clock_Params__init__S)
                  00017358    0000000c     sysbios.aem4f : BIOS.obj (.text:ti_sysbios_knl_Clock_getTicks__E)
                  00017364    0000000c     RTOS_16eth_pem4f.oem4f (.text:ti_sysbios_knl_Queue_Object__get__S)
                  00017370    0000000c     RTOS_16eth_pem4f.oem4f (.text:ti_sysbios_knl_Semaphore_Params__init__S)
                  0001737c    0000000c     RTOS_16eth_pem4f.oem4f (.text:ti_sysbios_knl_Task_Params__init__S)
                  00017388    0000000c     sysbios.aem4f : BIOS.obj (.text:ti_sysbios_knl_Task_getIdleTask__E)
                  00017394    00000004     --HOLE-- [fill = 0]
                  00017398    0000000c                   : BIOS.obj (.text:ti_sysbios_knl_Task_self__E)
                  000173a4    00000004     --HOLE-- [fill = 0]
                  000173a8    0000000c                   : BIOS.obj (.text:ti_sysbios_utils_Load_taskRegHook__E)
                  000173b4    0000000c     driverlib.lib : udma.obj (.text:uDMAControlBaseSet)
                  000173c0    0000000c     ti.targets.arm.rtsarm.aem4f : Error.oem4f (.text:xdc_runtime_Error_init__E)
                  000173cc    0000000c                                 : Gate.oem4f (.text:xdc_runtime_Gate_enterSystem__E)
                  000173d8    0000000c                                 : Memory.oem4f (.text:xdc_runtime_Memory_calloc__E)
                  000173e4    0000000c                                 : Memory.oem4f (.text:xdc_runtime_Memory_getMaxDefaultTypeAlign__E)
                  000173f0    0000000a     stk.aem4f : file.oem4f (.text:fdint_signalevent)
                  000173fa    0000000a               : file.oem4f (.text:fdint_signaltimeout)
                  00017404    0000000a     RTOS_16eth_pem4f.oem4f (.text:xdc_runtime_IHeap_alloc)
                  0001740e    0000000a     RTOS_16eth_pem4f.oem4f (.text:xdc_runtime_IHeap_free)
                  00017418    00000008     driverlib.lib : adc.obj (.text:ADCIntEnableEx)
                  00017420    00000008     EK_TM4C1294XL.obj (.text:EK_TM4C1294XL_initGPIO)
                  00017428    00000008     driverlib.lib : emac.obj (.text:EMACTxDMAPollDemand)
                  00017430    00000008     stk.aem4f : node.oem4f (.text:NodeFree)
                  00017438    00000008     os.aem4f : task.oem4f (.text:TaskBlock)
                  00017440    00000008     sysbios.aem4f : BIOS.obj (.text:ti_sysbios_family_arm_lm4_Timer_masterDisable__I)
                  00017448    00000008                   : BIOS.obj (.text:ti_sysbios_family_arm_m3_Hwi_doSwiRestore__I)
                  00017450    00000008                   : BIOS.obj (.text:ti_sysbios_family_arm_m3_Hwi_startup__E)
                  00017458    00000008                   : BIOS.obj (.text:ti_sysbios_knl_Task_getHookContext__E)
                  00017460    00000008                   : BIOS.obj (.text:ti_sysbios_knl_Task_setHookContext__E)
                  00017468    00000006     driverlib.lib : gpio.obj (.text:GPIOPinWrite)
                  0001746e    00000006                   : sysctl.obj (.text:SysCtlDelay)
                  00017474    00000006     stk.aem4f : tcpprot.oem4f (.text:TcpPrRecv)
                  0001747a    00000006     ti.targets.arm.rtsarm.aem4f : xdc_noinit.oem4f (.text:__xdc__init)
                  00017480    00000006     rtsv7M4_T_le_v4SPD16_eabi.lib : copy_decompress_rle.obj (.text:decompress:rle24)
                  00017486    00000002     --HOLE-- [fill = 0]
                  00017488    00000006     sysbios.aem4f : BIOS.obj (.text:ti_sysbios_family_arm_lm4_TimestampProvider_Module_startup__E)
                  0001748e    00000002     --HOLE-- [fill = 0]
                  00017490    00000006                   : BIOS.obj (.text:ti_sysbios_family_arm_m3_Hwi_restoreFxn__E)
                  00017496    00000002     --HOLE-- [fill = 0]
                  00017498    00000006                   : BIOS.obj (.text:ti_sysbios_gates_GateHwi_leave__E)
                  0001749e    00000002     --HOLE-- [fill = 0]
                  000174a0    00000006                   : BIOS.obj (.text:ti_sysbios_heaps_HeapMem_isBlocking__E)
                  000174a6    00000002     --HOLE-- [fill = 0]
                  000174a8    00000006                   : BIOS.obj (.text:ti_sysbios_knl_Queue_Instance_init__E)
                  000174ae    00000006     ti.targets.arm.rtsarm.aem4f : System.oem4f (.text:xdc_runtime_System_Module_startup__E)
                  000174b4    00000004     --HOLE-- [fill = 0]
                  000174b8    00000004     sysbios.aem4f : BIOS.obj (.text:ti_sysbios_family_arm_lm4_Timer_getPeriod__E)
                  000174bc    00000004     --HOLE-- [fill = 0]
                  000174c0    00000004                   : BIOS.obj (.text:ti_sysbios_gates_GateHwi_query__E)
                  000174c4    00000004     --HOLE-- [fill = 0]
                  000174c8    00000004                   : BIOS.obj (.text:ti_sysbios_gates_GateMutex_query__E)
                  000174cc    00000004     --HOLE-- [fill = 0]
                  000174d0    00000004                   : BIOS.obj (.text:ti_sysbios_knl_Task_startup__E)
                  000174d4    00000004     --HOLE-- [fill = 0]
                  000174d8    00000002                   : BIOS.obj (.text:ti_sysbios_gates_GateHwi_Instance_init__E)

.const     0    000174dc    000165c2     
                  000174dc    00004000     dsplib-cm4f.lib : arm_common_tables.obj (.const:twiddleCoef_2048)
                  0001b4dc    00004000                     : arm_common_tables.obj (.const:twiddleCoef_rfft_4096)
                  0001f4dc    00002138     RTOS_16eth_pem4f.oem4f (.const:xdc_runtime_Text_charTab__A)
                  00021614    00002000     dsplib-cm4f.lib : arm_common_tables.obj (.const:twiddleCoef_1024)
                  00023614    00002000                     : arm_common_tables.obj (.const:twiddleCoef_rfft_2048)
                  00025614    00001dc0                     : arm_common_tables.obj (.const:armBitRevIndexTable2048)
                  000273d4    00001000                     : arm_common_tables.obj (.const:twiddleCoef_512)
                  000283d4    00001000                     : arm_common_tables.obj (.const:twiddleCoef_rfft_1024)
                  000293d4    00000e10                     : arm_common_tables.obj (.const:armBitRevIndexTable1024)
                  0002a1e4    00000800                     : arm_common_tables.obj (.const:twiddleCoef_256)
                  0002a9e4    00000800                     : arm_common_tables.obj (.const:twiddleCoef_rfft_512)
                  0002b1e4    00000400                     : arm_common_tables.obj (.const:twiddleCoef_128)
                  0002b5e4    00000400                     : arm_common_tables.obj (.const:twiddleCoef_rfft_256)
                  0002b9e4    00000380                     : arm_common_tables.obj (.const:armBitRevIndexTable512)
                  0002bd64    00000370                     : arm_common_tables.obj (.const:armBitRevIndexTable256)
                  0002c0d4    00000200                     : arm_common_tables.obj (.const:twiddleCoef_64)
                  0002c2d4    00000200                     : arm_common_tables.obj (.const:twiddleCoef_rfft_128)
                  0002c4d4    000001a0                     : arm_common_tables.obj (.const:armBitRevIndexTable128)
                  0002c674    00000120     Boot.aem4f : Boot_sysctl.oem4f (.const:g_pppui32XTALtoVCO)
                  0002c794    00000120     driverlib.lib : sysctl.obj (.const:g_pppui32XTALtoVCO)
                  0002c8b4    0000011c     RTOS_16eth_pem4f.oem4f (.const:xdc_runtime_Text_nodeTab__A)
                  0002c9d0    00000104     RTOS_16eth_pem4f.oem4f (.const:.string)
                  0002cad4    00000100     dsplib-cm4f.lib : arm_common_tables.obj (.const:twiddleCoef_32)
                  0002cbd4    00000100                     : arm_common_tables.obj (.const:twiddleCoef_rfft_64)
                  0002ccd4    00000090     driverlib.lib : gpio.obj (.const:g_pui32GPIOBaseAddrs)
                  0002cd64    00000080     dsplib-cm4f.lib : arm_common_tables.obj (.const:twiddleCoef_16)
                  0002cde4    00000080                     : arm_common_tables.obj (.const:twiddleCoef_rfft_32)
                  0002ce64    00000070                     : arm_common_tables.obj (.const:armBitRevIndexTable64)
                  0002ced4    00000070     driverlib.lib : interrupt.obj (.const)
                  0002cf44    0000006c     Boot.aem4f : Boot_sysctl.oem4f (.const:g_pui32Xtals)
                  0002cfb0    0000006c     driverlib.lib : sysctl.obj (.const:g_pui32Xtals)
                  0002d01c    00000060     dsplib-cm4f.lib : arm_common_tables.obj (.const:armBitRevIndexTable32)
                  0002d07c    00000060     RTOS_16eth_pem4f.oem4f (.const:ti_uia_loggers_LoggerStopMode_Module__FXNS__C)
                  0002d0dc    00000054     drivers_tivaware.aem4f : GPIOTiva.oem4f (.const:.string)
                  0002d130    00000054     stk.aem4f : sockprot.oem4f (.const:Code2Err)
                  0002d184    00000048     drivers_tivaware.aem4f : GPIOTiva.oem4f (.const:gpioBaseAddresses)
                  0002d1cc    00000044     RTOS_16eth_pem4f.oem4f (.const)
                  0002d210    0000003e     stk.aem4f : rtc.oem4f (.const:.string)
                  0002d24e    00000002     RTOS_16eth_pem4f.oem4f (.const:ti_catalog_arm_cortexm4_tiva_ce_Boot_Module__id__C)
                  0002d250    0000003c     RTOS_16eth_pem4f.oem4f (.const:ti_sysbios_knl_Task_Object__PARAMS__C)
                  0002d28c    00000033     main16eth.obj (.const:.string:$P$T0$1)
                  0002d2bf    00000001     RTOS_16eth_pem4f.oem4f (.const:xdc_runtime_Error_policy__C)
                  0002d2c0    00000030     Boot.aem4f : Boot_sysctl.oem4f (.const:g_sXTALtoMEMTIM)
                  0002d2f0    00000030     driverlib.lib : sysctl.obj (.const:g_sXTALtoMEMTIM)
                  0002d320    00000030     RTOS_16eth_pem4f.oem4f (.const:ti_sysbios_family_arm_m3_Hwi_Object__PARAMS__C)
                  0002d350    00000030     RTOS_16eth_pem4f.oem4f (.const:ti_sysbios_knl_Task_hooks__A)
                  0002d380    00000028     dsplib-cm4f.lib : arm_common_tables.obj (.const:armBitRevIndexTable16)
                  0002d3a8    00000028     RTOS_16eth_pem4f.oem4f (.const:ti_sysbios_heaps_HeapMem_Module__FXNS__C)
                  0002d3d0    00000028     RTOS_16eth_pem4f.oem4f (.const:ti_sysbios_knl_Swi_Object__PARAMS__C)
                  0002d3f8    00000028     RTOS_16eth_pem4f.oem4f (.const:ti_uia_loggers_LoggerStopMode_Object__PARAMS__C)
                  0002d420    00000028     RTOS_16eth_pem4f.oem4f (.const:xdc_runtime_Startup_sfxnTab__A)
                  0002d448    00000024     RTOS_16eth_pem4f.oem4f (.const:ti_sysbios_gates_GateHwi_Module__FXNS__C)
                  0002d46c    00000024     RTOS_16eth_pem4f.oem4f (.const:ti_sysbios_gates_GateMutex_Module__FXNS__C)
                  0002d490    00000024     RTOS_16eth_pem4f.oem4f (.const:ti_sysbios_heaps_HeapMem_Object__PARAMS__C)
                  0002d4b4    00000024     RTOS_16eth_pem4f.oem4f (.const:ti_sysbios_knl_Clock_Object__PARAMS__C)
                  0002d4d8    00000024     RTOS_16eth_pem4f.oem4f (.const:ti_sysbios_knl_Semaphore_Object__PARAMS__C)
                  0002d4fc    00000020     RTOS_16eth_pem4f.oem4f (.const:ti_sysbios_family_arm_m3_Hwi_Object__DESC__C)
                  0002d51c    00000020     RTOS_16eth_pem4f.oem4f (.const:ti_sysbios_gates_GateHwi_Object__DESC__C)
                  0002d53c    00000020     RTOS_16eth_pem4f.oem4f (.const:ti_sysbios_gates_GateMutex_Object__DESC__C)
                  0002d55c    00000020     RTOS_16eth_pem4f.oem4f (.const:ti_sysbios_heaps_HeapMem_Object__DESC__C)
                  0002d57c    00000020     RTOS_16eth_pem4f.oem4f (.const:ti_sysbios_knl_Clock_Object__DESC__C)
                  0002d59c    00000020     RTOS_16eth_pem4f.oem4f (.const:ti_sysbios_knl_Queue_Object__DESC__C)
                  0002d5bc    00000020     RTOS_16eth_pem4f.oem4f (.const:ti_sysbios_knl_Semaphore_Object__DESC__C)
                  0002d5dc    00000020     RTOS_16eth_pem4f.oem4f (.const:ti_sysbios_knl_Swi_Object__DESC__C)
                  0002d5fc    00000020     RTOS_16eth_pem4f.oem4f (.const:ti_sysbios_knl_Task_Object__DESC__C)
                  0002d61c    00000020     RTOS_16eth_pem4f.oem4f (.const:ti_uia_loggers_LoggerStopMode_Object__DESC__C)
                  0002d63c    00000018     EK_TM4C1294XL.obj (.const:EMAC_config)
                  0002d654    00000018     driverlib.lib : emac.obj (.const)
                  0002d66c    00000018     RTOS_16eth_pem4f.oem4f (.const:ti_sysbios_gates_GateHwi_Object__PARAMS__C)
                  0002d684    00000018     RTOS_16eth_pem4f.oem4f (.const:ti_sysbios_gates_GateMutex_Object__PARAMS__C)
                  0002d69c    00000018     RTOS_16eth_pem4f.oem4f (.const:ti_sysbios_knl_Queue_Object__PARAMS__C)
                  0002d6b4    00000018     RTOS_16eth_pem4f.oem4f (.const:ti_sysbios_knl_Swi_hooks__A)
                  0002d6cc    00000014     EK_TM4C1294XL.obj (.const:GPIOTiva_config)
                  0002d6e0    00000014     RTOS_16eth_pem4f.oem4f (.const:ti_sysbios_family_arm_m3_Hwi_hooks__A)
                  0002d6f4    00000014     RTOS_16eth_pem4f.oem4f (.const:xdc_runtime_Startup_firstFxns__A)
                  0002d708    00000014     RTOS_16eth_pem4f.oem4f (.const:xdc_runtime_Startup_sfxnRts__A)
                  0002d71c    00000010     EK_TM4C1294XL.obj (.const:emacHWAttrs)
                  0002d72c    00000010     RTOS_16eth_pem4f.oem4f (.const:ti_sysbios_knl_Idle_funcList__A)
                  0002d73c    00000008     Boot.aem4f : Boot_sysctl.oem4f (.const)
                  0002d744    00000008     driverlib.lib : sysctl.obj (.const)
                  0002d74c    00000008     drivers_tivaware.aem4f : EMACSnow.oem4f (.const)
                  0002d754    00000008     RTOS_16eth_pem4f.oem4f (.const:ti_sysbios_family_arm_m3_Hwi_excHookFuncs__A)
                  0002d75c    00000008     RTOS_16eth_pem4f.oem4f (.const:ti_sysbios_family_arm_m3_Hwi_hooks__C)
                  0002d764    00000008     RTOS_16eth_pem4f.oem4f (.const:ti_sysbios_knl_Idle_funcList__C)
                  0002d76c    00000008     RTOS_16eth_pem4f.oem4f (.const:ti_sysbios_knl_Swi_hooks__C)
                  0002d774    00000008     RTOS_16eth_pem4f.oem4f (.const:ti_sysbios_knl_Task_hooks__C)
                  0002d77c    00000008     RTOS_16eth_pem4f.oem4f (.const:xdc_runtime_Startup_firstFxns__C)
                  0002d784    00000008     RTOS_16eth_pem4f.oem4f (.const:xdc_runtime_Startup_lastFxns__C)
                  0002d78c    00000004     RTOS_16eth_pem4f.oem4f (.const:ti_catalog_arm_cortexm4_tiva_ce_Boot_A_mustNotUseEnhancedClockMode__C)
                  0002d790    00000004     RTOS_16eth_pem4f.oem4f (.const:ti_catalog_arm_cortexm4_tiva_ce_Boot_Module__diagsEnabled__C)
                  0002d794    00000004     RTOS_16eth_pem4f.oem4f (.const:ti_catalog_arm_cortexm4_tiva_ce_Boot_Module__diagsIncluded__C)
                  0002d798    00000004     RTOS_16eth_pem4f.oem4f (.const:ti_catalog_arm_cortexm4_tiva_ce_Boot_Module__diagsMask__C)
                  0002d79c    00000004     RTOS_16eth_pem4f.oem4f (.const:ti_sysbios_family_arm_lm4_Timer_enableFunc__C)
                  0002d7a0    00000004     RTOS_16eth_pem4f.oem4f (.const:ti_sysbios_family_arm_lm4_Timer_numTimerDevices__C)
                  0002d7a4    00000004     RTOS_16eth_pem4f.oem4f (.const:ti_sysbios_family_arm_lm4_Timer_startupNeeded__C)
                  0002d7a8    00000004     RTOS_16eth_pem4f.oem4f (.const:ti_sysbios_family_arm_m3_Hwi_E_NMI__C)
                  0002d7ac    00000004     RTOS_16eth_pem4f.oem4f (.const:ti_sysbios_family_arm_m3_Hwi_E_alreadyDefined__C)
                  0002d7b0    00000004     RTOS_16eth_pem4f.oem4f (.const:ti_sysbios_family_arm_m3_Hwi_E_busFault__C)
                  0002d7b4    00000004     RTOS_16eth_pem4f.oem4f (.const:ti_sysbios_family_arm_m3_Hwi_E_debugMon__C)
                  0002d7b8    00000004     RTOS_16eth_pem4f.oem4f (.const:ti_sysbios_family_arm_m3_Hwi_E_hardFault__C)
                  0002d7bc    00000004     RTOS_16eth_pem4f.oem4f (.const:ti_sysbios_family_arm_m3_Hwi_E_memFault__C)
                  0002d7c0    00000004     RTOS_16eth_pem4f.oem4f (.const:ti_sysbios_family_arm_m3_Hwi_E_noIsr__C)
                  0002d7c4    00000004     RTOS_16eth_pem4f.oem4f (.const:ti_sysbios_family_arm_m3_Hwi_E_reserved__C)
                  0002d7c8    00000004     RTOS_16eth_pem4f.oem4f (.const:ti_sysbios_family_arm_m3_Hwi_E_svCall__C)
                  0002d7cc    00000004     RTOS_16eth_pem4f.oem4f (.const:ti_sysbios_family_arm_m3_Hwi_E_usageFault__C)
                  0002d7d0    00000004     RTOS_16eth_pem4f.oem4f (.const:ti_sysbios_family_arm_m3_Hwi_LD_end__C)
                  0002d7d4    00000004     RTOS_16eth_pem4f.oem4f (.const:ti_sysbios_family_arm_m3_Hwi_LM_begin__C)
                  0002d7d8    00000004     RTOS_16eth_pem4f.oem4f (.const:ti_sysbios_family_arm_m3_Hwi_Module__diagsEnabled__C)
                  0002d7dc    00000004     RTOS_16eth_pem4f.oem4f (.const:ti_sysbios_family_arm_m3_Hwi_Module__diagsIncluded__C)
                  0002d7e0    00000004     RTOS_16eth_pem4f.oem4f (.const:ti_sysbios_family_arm_m3_Hwi_Module__diagsMask__C)
                  0002d7e4    00000004     RTOS_16eth_pem4f.oem4f (.const:ti_sysbios_family_arm_m3_Hwi_Module__loggerFxn1__C)
                  0002d7e8    00000004     RTOS_16eth_pem4f.oem4f (.const:ti_sysbios_family_arm_m3_Hwi_Module__loggerFxn8__C)
                  0002d7ec    00000004     RTOS_16eth_pem4f.oem4f (.const:ti_sysbios_family_arm_m3_Hwi_Module__loggerObj__C)
                  0002d7f0    00000004     RTOS_16eth_pem4f.oem4f (.const:ti_sysbios_family_arm_m3_Hwi_NUM_INTERRUPTS__C)
                  0002d7f4    00000004     RTOS_16eth_pem4f.oem4f (.const:ti_sysbios_family_arm_m3_Hwi_Object__count__C)
                  0002d7f8    00000004     RTOS_16eth_pem4f.oem4f (.const:ti_sysbios_family_arm_m3_Hwi_Object__heap__C)
                  0002d7fc    00000004     RTOS_16eth_pem4f.oem4f (.const:ti_sysbios_family_arm_m3_Hwi_ccr__C)
                  0002d800    00000004     RTOS_16eth_pem4f.oem4f (.const:ti_sysbios_family_arm_m3_Hwi_excHandlerFunc__C)
                  0002d804    00000004     RTOS_16eth_pem4f.oem4f (.const:ti_sysbios_family_arm_m3_Hwi_excHookFuncs__C)
                  0002d808    00000004     RTOS_16eth_pem4f.oem4f (.const:ti_sysbios_family_arm_m3_Hwi_nullIsrFunc__C)
                  0002d80c    00000004     RTOS_16eth_pem4f.oem4f (.const:ti_sysbios_family_arm_m3_Hwi_priGroup__C)
                  0002d810    00000004     RTOS_16eth_pem4f.oem4f (.const:ti_sysbios_family_arm_m3_TaskSupport_stackAlignment__C)
                  0002d814    00000004     RTOS_16eth_pem4f.oem4f (.const:ti_sysbios_gates_GateMutex_A_badContext__C)
                  0002d818    00000004     RTOS_16eth_pem4f.oem4f (.const:ti_sysbios_gates_GateMutex_Instance_State_sem__O)
                  0002d81c    00000004     RTOS_16eth_pem4f.oem4f (.const:ti_sysbios_gates_GateMutex_Module__diagsEnabled__C)
                  0002d820    00000004     RTOS_16eth_pem4f.oem4f (.const:ti_sysbios_gates_GateMutex_Module__diagsIncluded__C)
                  0002d824    00000004     RTOS_16eth_pem4f.oem4f (.const:ti_sysbios_gates_GateMutex_Module__diagsMask__C)
                  0002d828    00000004     RTOS_16eth_pem4f.oem4f (.const:ti_sysbios_hal_Hwi_E_stackOverflow__C)
                  0002d82c    00000004     RTOS_16eth_pem4f.oem4f (.const:ti_sysbios_heaps_HeapMem_A_align__C)
                  0002d830    00000004     RTOS_16eth_pem4f.oem4f (.const:ti_sysbios_heaps_HeapMem_A_heapSize__C)
                  0002d834    00000004     RTOS_16eth_pem4f.oem4f (.const:ti_sysbios_heaps_HeapMem_A_invalidFree__C)
                  0002d838    00000004     RTOS_16eth_pem4f.oem4f (.const:ti_sysbios_heaps_HeapMem_A_zeroBlock__C)
                  0002d83c    00000004     RTOS_16eth_pem4f.oem4f (.const:ti_sysbios_heaps_HeapMem_E_memory__C)
                  0002d840    00000004     RTOS_16eth_pem4f.oem4f (.const:ti_sysbios_heaps_HeapMem_Module__diagsEnabled__C)
                  0002d844    00000004     RTOS_16eth_pem4f.oem4f (.const:ti_sysbios_heaps_HeapMem_Module__diagsIncluded__C)
                  0002d848    00000004     RTOS_16eth_pem4f.oem4f (.const:ti_sysbios_heaps_HeapMem_Module__diagsMask__C)
                  0002d84c    00000004     RTOS_16eth_pem4f.oem4f (.const:ti_sysbios_heaps_HeapMem_Module__gateObj__C)
                  0002d850    00000004     RTOS_16eth_pem4f.oem4f (.const:ti_sysbios_heaps_HeapMem_Object__count__C)
                  0002d854    00000004     RTOS_16eth_pem4f.oem4f (.const:ti_sysbios_heaps_HeapMem_reqAlign__C)
                  0002d858    00000004     RTOS_16eth_pem4f.oem4f (.const:ti_sysbios_knl_Clock_A_badThreadType__C)
                  0002d85c    00000004     RTOS_16eth_pem4f.oem4f (.const:ti_sysbios_knl_Clock_LM_begin__C)
                  0002d860    00000004     RTOS_16eth_pem4f.oem4f (.const:ti_sysbios_knl_Clock_LM_tick__C)
                  0002d864    00000004     RTOS_16eth_pem4f.oem4f (.const:ti_sysbios_knl_Clock_LW_delayed__C)
                  0002d868    00000004     RTOS_16eth_pem4f.oem4f (.const:ti_sysbios_knl_Clock_Module_State_clockQ__O)
                  0002d86c    00000004     RTOS_16eth_pem4f.oem4f (.const:ti_sysbios_knl_Clock_Module__diagsEnabled__C)
                  0002d870    00000004     RTOS_16eth_pem4f.oem4f (.const:ti_sysbios_knl_Clock_Module__diagsIncluded__C)
                  0002d874    00000004     RTOS_16eth_pem4f.oem4f (.const:ti_sysbios_knl_Clock_Module__diagsMask__C)
                  0002d878    00000004     RTOS_16eth_pem4f.oem4f (.const:ti_sysbios_knl_Clock_Module__loggerFxn1__C)
                  0002d87c    00000004     RTOS_16eth_pem4f.oem4f (.const:ti_sysbios_knl_Clock_Module__loggerFxn2__C)
                  0002d880    00000004     RTOS_16eth_pem4f.oem4f (.const:ti_sysbios_knl_Clock_Module__loggerObj__C)
                  0002d884    00000004     RTOS_16eth_pem4f.oem4f (.const:ti_sysbios_knl_Semaphore_A_badContext__C)
                  0002d888    00000004     RTOS_16eth_pem4f.oem4f (.const:ti_sysbios_knl_Semaphore_A_noEvents__C)
                  0002d88c    00000004     RTOS_16eth_pem4f.oem4f (.const:ti_sysbios_knl_Semaphore_A_overflow__C)
                  0002d890    00000004     RTOS_16eth_pem4f.oem4f (.const:ti_sysbios_knl_Semaphore_A_pendTaskDisabled__C)
                  0002d894    00000004     RTOS_16eth_pem4f.oem4f (.const:ti_sysbios_knl_Semaphore_Instance_State_pendQ__O)
                  0002d898    00000004     RTOS_16eth_pem4f.oem4f (.const:ti_sysbios_knl_Semaphore_LM_pend__C)
                  0002d89c    00000004     RTOS_16eth_pem4f.oem4f (.const:ti_sysbios_knl_Semaphore_LM_post__C)
                  0002d8a0    00000004     RTOS_16eth_pem4f.oem4f (.const:ti_sysbios_knl_Semaphore_Module__diagsEnabled__C)
                  0002d8a4    00000004     RTOS_16eth_pem4f.oem4f (.const:ti_sysbios_knl_Semaphore_Module__diagsIncluded__C)
                  0002d8a8    00000004     RTOS_16eth_pem4f.oem4f (.const:ti_sysbios_knl_Semaphore_Module__diagsMask__C)
                  0002d8ac    00000004     RTOS_16eth_pem4f.oem4f (.const:ti_sysbios_knl_Semaphore_Module__loggerFxn2__C)
                  0002d8b0    00000004     RTOS_16eth_pem4f.oem4f (.const:ti_sysbios_knl_Semaphore_Module__loggerFxn4__C)
                  0002d8b4    00000004     RTOS_16eth_pem4f.oem4f (.const:ti_sysbios_knl_Semaphore_Module__loggerObj__C)
                  0002d8b8    00000004     RTOS_16eth_pem4f.oem4f (.const:ti_sysbios_knl_Swi_A_badPriority__C)
                  0002d8bc    00000004     RTOS_16eth_pem4f.oem4f (.const:ti_sysbios_knl_Swi_LD_end__C)
                  0002d8c0    00000004     RTOS_16eth_pem4f.oem4f (.const:ti_sysbios_knl_Swi_LM_begin__C)
                  0002d8c4    00000004     RTOS_16eth_pem4f.oem4f (.const:ti_sysbios_knl_Swi_LM_post__C)
                  0002d8c8    00000004     RTOS_16eth_pem4f.oem4f (.const:ti_sysbios_knl_Swi_Module__diagsEnabled__C)
                  0002d8cc    00000004     RTOS_16eth_pem4f.oem4f (.const:ti_sysbios_knl_Swi_Module__diagsIncluded__C)
                  0002d8d0    00000004     RTOS_16eth_pem4f.oem4f (.const:ti_sysbios_knl_Swi_Module__diagsMask__C)
                  0002d8d4    00000004     RTOS_16eth_pem4f.oem4f (.const:ti_sysbios_knl_Swi_Module__loggerFxn1__C)
                  0002d8d8    00000004     RTOS_16eth_pem4f.oem4f (.const:ti_sysbios_knl_Swi_Module__loggerFxn4__C)
                  0002d8dc    00000004     RTOS_16eth_pem4f.oem4f (.const:ti_sysbios_knl_Swi_Module__loggerObj__C)
                  0002d8e0    00000004     RTOS_16eth_pem4f.oem4f (.const:ti_sysbios_knl_Swi_Object__count__C)
                  0002d8e4    00000004     RTOS_16eth_pem4f.oem4f (.const:ti_sysbios_knl_Swi_Object__heap__C)
                  0002d8e8    00000004     RTOS_16eth_pem4f.oem4f (.const:ti_sysbios_knl_Swi_numConstructedSwis__C)
                  0002d8ec    00000004     RTOS_16eth_pem4f.oem4f (.const:ti_sysbios_knl_Task_A_badPriority__C)
                  0002d8f0    00000004     RTOS_16eth_pem4f.oem4f (.const:ti_sysbios_knl_Task_A_badTaskState__C)
                  0002d8f4    00000004     RTOS_16eth_pem4f.oem4f (.const:ti_sysbios_knl_Task_A_badThreadType__C)
                  0002d8f8    00000004     RTOS_16eth_pem4f.oem4f (.const:ti_sysbios_knl_Task_A_badTimeout__C)
                  0002d8fc    00000004     RTOS_16eth_pem4f.oem4f (.const:ti_sysbios_knl_Task_A_noPendElem__C)
                  0002d900    00000004     RTOS_16eth_pem4f.oem4f (.const:ti_sysbios_knl_Task_A_sleepTaskDisabled__C)
                  0002d904    00000004     RTOS_16eth_pem4f.oem4f (.const:ti_sysbios_knl_Task_E_deleteNotAllowed__C)
                  0002d908    00000004     RTOS_16eth_pem4f.oem4f (.const:ti_sysbios_knl_Task_E_spOutOfBounds__C)
                  0002d90c    00000004     RTOS_16eth_pem4f.oem4f (.const:ti_sysbios_knl_Task_E_stackOverflow__C)
                  0002d910    00000004     RTOS_16eth_pem4f.oem4f (.const:ti_sysbios_knl_Task_LD_block__C)
                  0002d914    00000004     RTOS_16eth_pem4f.oem4f (.const:ti_sysbios_knl_Task_LD_exit__C)
                  0002d918    00000004     RTOS_16eth_pem4f.oem4f (.const:ti_sysbios_knl_Task_LD_ready__C)
                  0002d91c    00000004     RTOS_16eth_pem4f.oem4f (.const:ti_sysbios_knl_Task_LM_setPri__C)
                  0002d920    00000004     RTOS_16eth_pem4f.oem4f (.const:ti_sysbios_knl_Task_LM_sleep__C)
                  0002d924    00000004     RTOS_16eth_pem4f.oem4f (.const:ti_sysbios_knl_Task_LM_switch__C)
                  0002d928    00000004     RTOS_16eth_pem4f.oem4f (.const:ti_sysbios_knl_Task_Module_State_inactiveQ__O)
                  0002d92c    00000004     RTOS_16eth_pem4f.oem4f (.const:ti_sysbios_knl_Task_Module_State_terminatedQ__O)
                  0002d930    00000004     RTOS_16eth_pem4f.oem4f (.const:ti_sysbios_knl_Task_Module__diagsEnabled__C)
                  0002d934    00000004     RTOS_16eth_pem4f.oem4f (.const:ti_sysbios_knl_Task_Module__diagsIncluded__C)
                  0002d938    00000004     RTOS_16eth_pem4f.oem4f (.const:ti_sysbios_knl_Task_Module__diagsMask__C)
                  0002d93c    00000004     RTOS_16eth_pem4f.oem4f (.const:ti_sysbios_knl_Task_Module__loggerFxn2__C)
                  0002d940    00000004     RTOS_16eth_pem4f.oem4f (.const:ti_sysbios_knl_Task_Module__loggerFxn4__C)
                  0002d944    00000004     RTOS_16eth_pem4f.oem4f (.const:ti_sysbios_knl_Task_Module__loggerObj__C)
                  0002d948    00000004     RTOS_16eth_pem4f.oem4f (.const:ti_sysbios_knl_Task_Object__count__C)
                  0002d94c    00000004     RTOS_16eth_pem4f.oem4f (.const:ti_sysbios_knl_Task_Object__heap__C)
                  0002d950    00000004     RTOS_16eth_pem4f.oem4f (.const:ti_sysbios_knl_Task_allBlockedFunc__C)
                  0002d954    00000004     RTOS_16eth_pem4f.oem4f (.const:ti_sysbios_knl_Task_defaultStackHeap__C)
                  0002d958    00000004     RTOS_16eth_pem4f.oem4f (.const:ti_sysbios_knl_Task_defaultStackSize__C)
                  0002d95c    00000004     RTOS_16eth_pem4f.oem4f (.const:ti_sysbios_knl_Task_numConstructedTasks__C)
                  0002d960    00000004     RTOS_16eth_pem4f.oem4f (.const:ti_sysbios_utils_Load_LS_cpuLoad__C)
                  0002d964    00000004     RTOS_16eth_pem4f.oem4f (.const:ti_sysbios_utils_Load_LS_hwiLoad__C)
                  0002d968    00000004     RTOS_16eth_pem4f.oem4f (.const:ti_sysbios_utils_Load_LS_swiLoad__C)
                  0002d96c    00000004     RTOS_16eth_pem4f.oem4f (.const:ti_sysbios_utils_Load_LS_taskLoad__C)
                  0002d970    00000004     RTOS_16eth_pem4f.oem4f (.const:ti_sysbios_utils_Load_Module_State_taskList__O)
                  0002d974    00000004     RTOS_16eth_pem4f.oem4f (.const:ti_sysbios_utils_Load_Module__diagsEnabled__C)
                  0002d978    00000004     RTOS_16eth_pem4f.oem4f (.const:ti_sysbios_utils_Load_Module__diagsIncluded__C)
                  0002d97c    00000004     RTOS_16eth_pem4f.oem4f (.const:ti_sysbios_utils_Load_Module__diagsMask__C)
                  0002d980    00000004     RTOS_16eth_pem4f.oem4f (.const:ti_sysbios_utils_Load_Module__loggerFxn1__C)
                  0002d984    00000004     RTOS_16eth_pem4f.oem4f (.const:ti_sysbios_utils_Load_Module__loggerFxn2__C)
                  0002d988    00000004     RTOS_16eth_pem4f.oem4f (.const:ti_sysbios_utils_Load_Module__loggerFxn4__C)
                  0002d98c    00000004     RTOS_16eth_pem4f.oem4f (.const:ti_sysbios_utils_Load_Module__loggerObj__C)
                  0002d990    00000004     RTOS_16eth_pem4f.oem4f (.const:ti_sysbios_utils_Load_postUpdate__C)
                  0002d994    00000004     RTOS_16eth_pem4f.oem4f (.const:ti_sysbios_utils_Load_windowInMs__C)
                  0002d998    00000004     RTOS_16eth_pem4f.oem4f (.const:ti_uia_loggers_LoggerStopMode_Module__diagsEnabled__C)
                  0002d99c    00000004     RTOS_16eth_pem4f.oem4f (.const:ti_uia_loggers_LoggerStopMode_Module__diagsIncluded__C)
                  0002d9a0    00000004     RTOS_16eth_pem4f.oem4f (.const:ti_uia_loggers_LoggerStopMode_Module__diagsMask__C)
                  0002d9a4    00000004     RTOS_16eth_pem4f.oem4f (.const:ti_uia_loggers_LoggerStopMode_Object__count__C)
                  0002d9a8    00000004     RTOS_16eth_pem4f.oem4f (.const:ti_uia_runtime_ILoggerSnapshot_Interface__BASE__C)
                  0002d9ac    00000004     RTOS_16eth_pem4f.oem4f (.const:ti_uia_runtime_IUIATransfer_Interface__BASE__C)
                  0002d9b0    00000004     RTOS_16eth_pem4f.oem4f (.const:xdc_runtime_Assert_E_assertFailed__C)
                  0002d9b4    00000004     RTOS_16eth_pem4f.oem4f (.const:xdc_runtime_Core_A_initializedParams__C)
                  0002d9b8    00000004     RTOS_16eth_pem4f.oem4f (.const:xdc_runtime_Core_Module__diagsEnabled__C)
                  0002d9bc    00000004     RTOS_16eth_pem4f.oem4f (.const:xdc_runtime_Core_Module__diagsIncluded__C)
                  0002d9c0    00000004     RTOS_16eth_pem4f.oem4f (.const:xdc_runtime_Core_Module__diagsMask__C)
                  0002d9c4    00000004     RTOS_16eth_pem4f.oem4f (.const:xdc_runtime_Error_E_memory__C)
                  0002d9c8    00000004     RTOS_16eth_pem4f.oem4f (.const:xdc_runtime_Error_Module__diagsEnabled__C)
                  0002d9cc    00000004     RTOS_16eth_pem4f.oem4f (.const:xdc_runtime_Error_Module__diagsIncluded__C)
                  0002d9d0    00000004     RTOS_16eth_pem4f.oem4f (.const:xdc_runtime_Error_Module__diagsMask__C)
                  0002d9d4    00000004     RTOS_16eth_pem4f.oem4f (.const:xdc_runtime_Error_Module__loggerFxn8__C)
                  0002d9d8    00000004     RTOS_16eth_pem4f.oem4f (.const:xdc_runtime_Error_Module__loggerObj__C)
                  0002d9dc    00000004     RTOS_16eth_pem4f.oem4f (.const:xdc_runtime_Error_policyFxn__C)
                  0002d9e0    00000004     RTOS_16eth_pem4f.oem4f (.const:xdc_runtime_Error_raiseHook__C)
                  0002d9e4    00000004     RTOS_16eth_pem4f.oem4f (.const:xdc_runtime_IFilterLogger_Interface__BASE__C)
                  0002d9e8    00000004     RTOS_16eth_pem4f.oem4f (.const:xdc_runtime_IGateProvider_Interface__BASE__C)
                  0002d9ec    00000004     RTOS_16eth_pem4f.oem4f (.const:xdc_runtime_IHeap_Interface__BASE__C)
                  0002d9f0    00000004     RTOS_16eth_pem4f.oem4f (.const:xdc_runtime_ILogger_Interface__BASE__C)
                  0002d9f4    00000004     RTOS_16eth_pem4f.oem4f (.const:xdc_runtime_IModule_Interface__BASE__C)
                  0002d9f8    00000004     RTOS_16eth_pem4f.oem4f (.const:xdc_runtime_Log_L_error__C)
                  0002d9fc    00000004     RTOS_16eth_pem4f.oem4f (.const:xdc_runtime_Log_L_info__C)
                  0002da00    00000004     RTOS_16eth_pem4f.oem4f (.const:xdc_runtime_Main_Module__diagsEnabled__C)
                  0002da04    00000004     RTOS_16eth_pem4f.oem4f (.const:xdc_runtime_Main_Module__diagsIncluded__C)
                  0002da08    00000004     RTOS_16eth_pem4f.oem4f (.const:xdc_runtime_Main_Module__diagsMask__C)
                  0002da0c    00000004     RTOS_16eth_pem4f.oem4f (.const:xdc_runtime_Main_Module__loggerFxn4__C)
                  0002da10    00000004     RTOS_16eth_pem4f.oem4f (.const:xdc_runtime_Main_Module__loggerObj__C)
                  0002da14    00000004     RTOS_16eth_pem4f.oem4f (.const:xdc_runtime_Memory_defaultHeapInstance__C)
                  0002da18    00000004     RTOS_16eth_pem4f.oem4f (.const:xdc_runtime_Startup_execImpl__C)
                  0002da1c    00000004     RTOS_16eth_pem4f.oem4f (.const:xdc_runtime_Startup_lastFxns__A)
                  0002da20    00000004     RTOS_16eth_pem4f.oem4f (.const:xdc_runtime_Startup_maxPasses__C)
                  0002da24    00000004     RTOS_16eth_pem4f.oem4f (.const:xdc_runtime_Startup_sfxnRts__C)
                  0002da28    00000004     RTOS_16eth_pem4f.oem4f (.const:xdc_runtime_Startup_sfxnTab__C)
                  0002da2c    00000004     RTOS_16eth_pem4f.oem4f (.const:xdc_runtime_SysMin_bufSize__C)
                  0002da30    00000004     RTOS_16eth_pem4f.oem4f (.const:xdc_runtime_SysMin_outputFunc__C)
                  0002da34    00000004     RTOS_16eth_pem4f.oem4f (.const:xdc_runtime_System_Module__gateObj__C)
                  0002da38    00000004     RTOS_16eth_pem4f.oem4f (.const:xdc_runtime_System_abortFxn__C)
                  0002da3c    00000004     RTOS_16eth_pem4f.oem4f (.const:xdc_runtime_System_exitFxn__C)
                  0002da40    00000004     RTOS_16eth_pem4f.oem4f (.const:xdc_runtime_System_extendFxn__C)
                  0002da44    00000004     RTOS_16eth_pem4f.oem4f (.const:xdc_runtime_System_maxAtexitHandlers__C)
                  0002da48    00000004     RTOS_16eth_pem4f.oem4f (.const:xdc_runtime_Text_charTab__C)
                  0002da4c    00000004     RTOS_16eth_pem4f.oem4f (.const:xdc_runtime_Text_nameEmpty__C)
                  0002da50    00000004     RTOS_16eth_pem4f.oem4f (.const:xdc_runtime_Text_nameStatic__C)
                  0002da54    00000004     RTOS_16eth_pem4f.oem4f (.const:xdc_runtime_Text_nameUnknown__C)
                  0002da58    00000004     RTOS_16eth_pem4f.oem4f (.const:xdc_runtime_Text_nodeTab__C)
                  0002da5c    00000004     RTOS_16eth_pem4f.oem4f (.const:xdc_runtime_Text_visitRopeFxn__C)
                  0002da60    00000002     RTOS_16eth_pem4f.oem4f (.const:ti_sysbios_family_arm_lm4_TimestampProvider_useClockTimer__C)
                  0002da62    00000002     RTOS_16eth_pem4f.oem4f (.const:ti_sysbios_family_arm_m3_Hwi_Module__id__C)
                  0002da64    00000002     RTOS_16eth_pem4f.oem4f (.const:ti_sysbios_family_arm_m3_Hwi_Module__loggerDefined__C)
                  0002da66    00000002     RTOS_16eth_pem4f.oem4f (.const:ti_sysbios_gates_GateMutex_Module__id__C)
                  0002da68    00000002     RTOS_16eth_pem4f.oem4f (.const:ti_sysbios_hal_Hwi_Module__id__C)
                  0002da6a    00000002     RTOS_16eth_pem4f.oem4f (.const:ti_sysbios_heaps_HeapMem_Module__id__C)
                  0002da6c    00000002     RTOS_16eth_pem4f.oem4f (.const:ti_sysbios_knl_Clock_Module__id__C)
                  0002da6e    00000002     RTOS_16eth_pem4f.oem4f (.const:ti_sysbios_knl_Clock_Module__loggerDefined__C)
                  0002da70    00000002     RTOS_16eth_pem4f.oem4f (.const:ti_sysbios_knl_Semaphore_Module__id__C)
                  0002da72    00000002     RTOS_16eth_pem4f.oem4f (.const:ti_sysbios_knl_Semaphore_Module__loggerDefined__C)
                  0002da74    00000002     RTOS_16eth_pem4f.oem4f (.const:ti_sysbios_knl_Swi_Module__id__C)
                  0002da76    00000002     RTOS_16eth_pem4f.oem4f (.const:ti_sysbios_knl_Swi_Module__loggerDefined__C)
                  0002da78    00000002     RTOS_16eth_pem4f.oem4f (.const:ti_sysbios_knl_Task_Module__id__C)
                  0002da7a    00000002     RTOS_16eth_pem4f.oem4f (.const:ti_sysbios_knl_Task_Module__loggerDefined__C)
                  0002da7c    00000002     RTOS_16eth_pem4f.oem4f (.const:ti_sysbios_utils_Load_Module__id__C)
                  0002da7e    00000002     RTOS_16eth_pem4f.oem4f (.const:ti_sysbios_utils_Load_Module__loggerDefined__C)
                  0002da80    00000002     RTOS_16eth_pem4f.oem4f (.const:ti_sysbios_utils_Load_autoAddTasks__C)
                  0002da82    00000002     RTOS_16eth_pem4f.oem4f (.const:ti_sysbios_utils_Load_updateInIdle__C)
                  0002da84    00000002     RTOS_16eth_pem4f.oem4f (.const:ti_uia_loggers_LoggerStopMode_Module__id__C)
                  0002da86    00000002     RTOS_16eth_pem4f.oem4f (.const:ti_uia_loggers_LoggerStopMode_isTimestampEnabled__C)
                  0002da88    00000002     RTOS_16eth_pem4f.oem4f (.const:xdc_runtime_Core_Module__id__C)
                  0002da8a    00000002     RTOS_16eth_pem4f.oem4f (.const:xdc_runtime_Error_Module__loggerDefined__C)
                  0002da8c    00000002     RTOS_16eth_pem4f.oem4f (.const:xdc_runtime_Error_maxDepth__C)
                  0002da8e    00000002     RTOS_16eth_pem4f.oem4f (.const:xdc_runtime_Main_Module__id__C)
                  0002da90    00000002     RTOS_16eth_pem4f.oem4f (.const:xdc_runtime_Main_Module__loggerDefined__C)
                  0002da92    00000002     RTOS_16eth_pem4f.oem4f (.const:xdc_runtime_Memory_Module__id__C)
                  0002da94    00000002     RTOS_16eth_pem4f.oem4f (.const:xdc_runtime_SysMin_flushAtExit__C)
                  0002da96    00000002     RTOS_16eth_pem4f.oem4f (.const:xdc_runtime_Text_charCnt__C)
                  0002da98    00000002     RTOS_16eth_pem4f.oem4f (.const:xdc_runtime_Text_isLoaded__C)
                  0002da9a    00000002     RTOS_16eth_pem4f.oem4f (.const:xdc_runtime_Text_registryModsLastId__C)
                  0002da9c    00000002     RTOS_16eth_pem4f.oem4f (.const:xdc_runtime_Text_unnamedModsLastId__C)

.cinit     0    0002daa0    000007ec     
                  0002daa0    000007a9     (.cinit..data.load) [load image, compression = rle]
                  0002e249    00000007     --HOLE-- [fill = 0]
                  0002e250    0000000d     (.cinit..bss.load) [load image, compression = rle]
                  0002e25d    00000003     --HOLE-- [fill = 0]
                  0002e260    0000000b     (.cinit..vecs.load) [load image, compression = rle]
                  0002e26b    00000001     --HOLE-- [fill = 0]
                  0002e26c    00000008     (__TI_handler_table)
                  0002e274    00000018     (__TI_cinit_table)

.init_array 
*          0    00000000    00000000     UNINITIALIZED

.resetVecs 
*          0    00000000    0000003c     
                  00000000    0000003c     RTOS_16eth_pem4f.oem4f (.resetVecs)

.vecs      0    20000000    00000360     UNINITIALIZED
                  20000000    00000360     RTOS_16eth_pem4f.oem4f (.vecs)

.bss       0    20000400    0001acec     UNINITIALIZED
                  20000400    00005000     (.common:ti_sysbios_heaps_HeapMem_Instance_State_0_buf__A)
                  20005400    000048a8     RTOS_16eth_pem4f.oem4f (.bss:NDK_MMBUFFER)
                  20009ca8    0000004c     stk.aem4f : icmp.oem4f (.bss:_ICMPIn)
                  20009cf4    0000000c     (.common:PBMQ_free)
                  20009d00    00003ef8     RTOS_16eth_pem4f.oem4f (.bss:NDK_PACKETMEM)
                  2000dbf8    00000008     rtsv7M4_T_le_v4SPD16_eabi.lib : trgdrv.obj (.bss:parmbuf)
                  2000dc00    00001400     (.common:ti_uia_loggers_LoggerStopMode_Instance_State_2_packetArray__A)
                  2000f000    00001000     RTOS_16eth_pem4f.oem4f (.bss:taskStackSection)
                  20010000    00001000     (.common:udmaCtrlTable)
                  20011000    00000800     (.common:data_array1)
                  20011800    00000800     (.common:data_array2)
                  20012000    00000800     (.common:data_array3)
                  20012800    00000800     (.common:data_array4)
                  20013000    00000800     (.common:ti_uia_loggers_LoggerStopMode_Instance_State_0_packetArray__A)
                  20013800    00000400     (.common:data_proc0)
                  20013c00    00000400     (.common:data_proc1)
                  20014000    00000400     (.common:data_proc10)
                  20014400    00000400     (.common:data_proc11)
                  20014800    00000400     (.common:data_proc12)
                  20014c00    00000400     (.common:data_proc13)
                  20015000    00000400     (.common:data_proc14)
                  20015400    00000400     (.common:data_proc15)
                  20015800    00000400     (.common:data_proc2)
                  20015c00    00000400     (.common:data_proc3)
                  20016000    00000400     (.common:data_proc4)
                  20016400    00000400     (.common:data_proc5)
                  20016800    00000400     (.common:data_proc6)
                  20016c00    00000400     (.common:data_proc7)
                  20017000    00000400     (.common:data_proc8)
                  20017400    00000400     (.common:data_proc9)
                  20017800    00000400     (.common:ti_uia_loggers_LoggerStopMode_Instance_State_1_packetArray__A)
                  20017c00    00000400     (.common:wave1)
                  20018000    00000400     (.common:wave2)
                  20018400    00000360     (.common:ti_sysbios_family_arm_m3_Hwi_dispatchTable)
                  20018760    00000200     (.common:data_proc0_mag)
                  20018960    00000200     (.common:data_proc10_mag)
                  20018b60    00000200     (.common:data_proc11_mag)
                  20018d60    00000200     (.common:data_proc12_mag)
                  20018f60    00000200     (.common:data_proc13_mag)
                  20019160    00000200     (.common:data_proc14_mag)
                  20019360    00000200     (.common:data_proc15_mag)
                  20019560    00000200     (.common:data_proc1_mag)
                  20019760    00000200     (.common:data_proc2_mag)
                  20019960    00000200     (.common:data_proc3_mag)
                  20019b60    00000200     (.common:data_proc4_mag)
                  20019d60    00000200     (.common:data_proc5_mag)
                  20019f60    00000200     (.common:data_proc6_mag)
                  2001a160    00000200     (.common:data_proc7_mag)
                  2001a360    00000200     (.common:data_proc8_mag)
                  2001a560    00000200     (.common:data_proc9_mag)
                  2001a760    00000120     rtsv7M4_T_le_v4SPD16_eabi.lib : trgmsg.obj (.bss:_CIOBUF_)
                  2001a880    00000100     stk.aem4f : igmp.oem4f (.bss:igmp)
                  2001a980    000000b8               : tcp.oem4f (.bss:tcps)
                  2001aa38    000000b4     netctrl_min_ipv4.aem4f : netsrv.oem4f (.bss:ipcfgcopy)
                  2001aaec    00000090     drivers_tivaware.aem4f : EMACSnow.oem4f (.bss:g_pRxDescriptors)
                  2001ab7c    00000090                            : EMACSnow.oem4f (.bss:g_pTxDescriptors)
                  2001ac0c    00000090                            : GPIOTiva.oem4f (.bss:gpioCallbackInfo)
                  2001ac9c    00000080     (.common:xdc_runtime_SysMin_Module_State_0_outbuf__A)
                  2001ad1c    00000068     stk.aem4f : ip.oem4f (.bss:ips)
                  2001ad84    00000064               : nimu.oem4f (.bss:nimu_mcb)
                  2001ade8    0000004c               : icmp.oem4f (.bss:_ICMPOut)
                  2001ae34    00000040     drivers_tivaware.aem4f : EMACSnow.oem4f (.bss:EMACSnow_private)
                  2001ae74    0000000c     (.common:tpseudo)
                  2001ae80    00000030     (.common:ti_uia_loggers_LoggerStopMode_Instance_State_0_hdr__A)
                  2001aeb0    00000028     stk.aem4f : vlan.oem4f (.bss:vlan_mcb)
                  2001aed8    00000024     netctrl_min_ipv4.aem4f : netsrv.oem4f (.bss:oscfgcopy)
                  2001aefc    00000004     (.common:IPCache)
                  2001af00    00000030     (.common:ti_uia_loggers_LoggerStopMode_Instance_State_1_hdr__A)
                  2001af30    00000024     stk.aem4f : udp.oem4f (.bss:udps)
                  2001af54    0000001c     (.common:BlockCount)
                  2001af70    00000010     (.common:igmpCount)
                  2001af80    00000030     (.common:ti_uia_loggers_LoggerStopMode_Instance_State_2_hdr__A)
                  2001afb0    0000001c     (.common:BlockMax)
                  2001afcc    0000001c     (.common:PageCount)
                  2001afe8    0000001c     (.common:PageMax)
                  2001b004    00000018     (.common:stkEvent)
                  2001b01c    00000014     (.common:pfnHook)
                  2001b030    00000010     (.common:raweths)
                  2001b040    00000010     (.common:raws)
                  2001b050    0000000c     (.common:upseudo)
                  2001b05c    00000008     (.common:emacObjects)
                  2001b064    00000008     (.common:ti_sysbios_knl_Task_Instance_State_0_hookEnv__A)
                  2001b06c    00000008     (.common:ti_sysbios_knl_Task_Instance_State_1_hookEnv__A)
                  2001b074    00000008     (.common:ti_sysbios_knl_Task_Instance_State_2_hookEnv__A)
                  2001b07c    00000008     (.common:ti_sysbios_knl_Task_Instance_State_3_hookEnv__A)
                  2001b084    00000008     (.common:ti_sysbios_knl_Task_Instance_State_4_hookEnv__A)
                  2001b08c    00000004     (.common:IPTrialAddress)
                  2001b090    00000004     (.common:LastCLKTime)
                  2001b094    00000004     (.common:LastCLKValid)
                  2001b098    00000004     (.common:NetHaltFlag)
                  2001b09c    00000004     (.common:NetReturnCode)
                  2001b0a0    00000004     (.common:TimeMS)
                  2001b0a4    00000004     (.common:TimeS)
                  2001b0a8    00000004     (.common:TimeStart)
                  2001b0ac    00000004     (.common:_IGMPInDiscard)
                  2001b0b0    00000004     (.common:_IGMPInQuery)
                  2001b0b4    00000004     (.common:_IGMPInQueryGroup)
                  2001b0b8    00000004     (.common:_IGMPInResponse)
                  2001b0bc    00000004     (.common:_IGMPOutResponse)
                  2001b0c0    00000004     (.common:g_ulStatus)
                  2001b0c4    00000004     (.common:gpioInterruptVectors)
                  2001b0c8    00000004     (.common:hEvent)
                  2001b0cc    00000004     (.common:hTimer$1)
                  2001b0d0    00000004     (.common:hTimer$1)
                  2001b0d4    00000004     (.common:raweth_pcb)
                  2001b0d8    00000004     (.common:ti_sysbios_family_arm_m3_Hwi_Instance_State_0_hookEnv__A)
                  2001b0dc    00000004     (.common:ti_sysbios_family_arm_m3_Hwi_Instance_State_1_hookEnv__A)
                  2001b0e0    00000004     (.common:ti_sysbios_family_arm_m3_Hwi_Instance_State_2_hookEnv__A)
                  2001b0e4    00000004     (.common:ti_sysbios_family_arm_m3_Hwi_Instance_State_3_hookEnv__A)
                  2001b0e8    00000004     (.common:ti_sysbios_knl_Swi_Instance_State_0_hookEnv__A)

.data      0    2001b0ec    00000c78     UNINITIALIZED
                  2001b0ec    00000190     RTOS_16eth_pem4f.oem4f (.data:ti_sysbios_knl_Task_Object__table__V)
                  2001b27c    000000b4     stk.aem4f : exec.oem4f (.data:_ipcfg)
                  2001b330    0000009c     RTOS_16eth_pem4f.oem4f (.data:ti_uia_loggers_LoggerStopMode_Object__table__V)
                  2001b3cc    00000098     RTOS_16eth_pem4f.oem4f (.data:ti_sysbios_utils_Load_Module__state__V)
                  2001b464    0000008c     RTOS_16eth_pem4f.oem4f (.data:ti_sysbios_utils_Load_Module_State_0_taskEnv__A)
                  2001b4f0    00000080     RTOS_16eth_pem4f.oem4f (.data:ti_sysbios_family_arm_lm4_Timer_Object__table__V)
                  2001b570    00000080     RTOS_16eth_pem4f.oem4f (.data:ti_sysbios_knl_Swi_Module_State_0_readyQ__A)
                  2001b5f0    00000080     RTOS_16eth_pem4f.oem4f (.data:ti_sysbios_knl_Task_Module_State_0_readyQ__A)
                  2001b670    00000078     RTOS_16eth_pem4f.oem4f (.data:ti_sysbios_knl_Semaphore_Object__table__V)
                  2001b6e8    00000060     RTOS_16eth_pem4f.oem4f (.data:ti_sysbios_family_arm_m3_Hwi_Object__table__V)
                  2001b748    00000050     main16eth.obj (.data)
                  2001b798    0000004d     nettool_ipv4.aem4f : dhcptags.oem4f (.data:DHCPTypeCode)
                  2001b7e5    00000001     --HOLE--
                  2001b7e6    00000002     RTOS_16eth_pem4f.oem4f (.data:ti_sysbios_family_arm_m3_Hwi_Module_State_0_excActive__A)
                  2001b7e8    00000044     RTOS_16eth_pem4f.oem4f (.data:ti_sysbios_knl_Task_Module__state__V)
                  2001b82c    00000040     netctrl_min_ipv4.aem4f : netsrv.oem4f (.data:CloseOrder)
                  2001b86c    00000040                            : netsrv.oem4f (.data:OpenOrder)
                  2001b8ac    00000040     RTOS_16eth_pem4f.oem4f (.data:ti_sysbios_family_arm_lm4_Timer_Module_State_0_device__A)
                  2001b8ec    00000038     RTOS_16eth_pem4f.oem4f (.data:ti_sysbios_gates_GateMutex_Object__table__V)
                  2001b924    00000034     stk.aem4f : tcptime.oem4f (.data:tcp_backoff)
                  2001b958    00000034     RTOS_16eth_pem4f.oem4f (.data:ti_sysbios_family_arm_m3_Hwi_Module__state__V)
                  2001b98c    00000032     drivers_tivaware.aem4f : EMACSnow.oem4f (.data)
                  2001b9be    00000002     RTOS_16eth_pem4f.oem4f (.data:xdc_runtime_Error_Module__state__V)
                  2001b9c0    00000030     stk.aem4f : exec.oem4f (.data:tasks)
                  2001b9f0    00000030     RTOS_16eth_pem4f.oem4f (.data:ti_sysbios_knl_Swi_Object__table__V)
                  2001ba20    0000002c     RTOS_16eth_pem4f.oem4f (.data:ti_sysbios_knl_Clock_Module__state__V)
                  2001ba4c    00000028     stk.aem4f : rtc.oem4f (.data)
                  2001ba74    00000024     os.aem4f : ossys.oem4f (.data:_oscfg)
                  2001ba98    00000024              : mem.oem4f (.data)
                  2001babc    00000024     RTOS_16eth_pem4f.oem4f (.data:ti_sysbios_BIOS_Module__state__V)
                  2001bae0    00000020     RTOS_16eth_pem4f.oem4f (.data:ti_sysbios_family_arm_lm4_Timer_Module_State_0_handles__A)
                  2001bb00    0000001c     EK_TM4C1294XL.obj (.data:gpioPinConfigs)
                  2001bb1c    0000001c     netctrl_min_ipv4.aem4f : netctrl.oem4f (.data)
                  2001bb38    0000001c     RTOS_16eth_pem4f.oem4f (.data:ti_ndk_config_Global_Id2Size)
                  2001bb54    0000001c     RTOS_16eth_pem4f.oem4f (.data:ti_sysbios_knl_Swi_Module__state__V)
                  2001bb70    00000018     RTOS_16eth_pem4f.oem4f (.data)
                  2001bb88    00000018     os.aem4f : task.oem4f (.data)
                  2001bba0    00000018     stk.aem4f : sockpcb.oem4f (.data)
                  2001bbb8    00000018     RTOS_16eth_pem4f.oem4f (.data:ti_sysbios_heaps_HeapMem_Object__table__V)
                  2001bbd0    00000014     stk.aem4f : rtable.oem4f (.data)
                  2001bbe4    00000010               : igmp.oem4f (.data)
                  2001bbf4    0000000c     rtsv7M4_T_le_v4SPD16_eabi.lib : exit.obj (.data:$O1$$)
                  2001bc00    0000000c     RTOS_16eth_pem4f.oem4f (.data:ti_sysbios_family_arm_lm4_Timer_Module__state__V)
                  2001bc0c    0000000c     RTOS_16eth_pem4f.oem4f (.data:ti_sysbios_knl_Task_Module__root__V)
                  2001bc18    0000000c     RTOS_16eth_pem4f.oem4f (.data:ti_uia_runtime_QueueDescriptor_Module__state__V)
                  2001bc24    0000000c     RTOS_16eth_pem4f.oem4f (.data:xdc_runtime_SysMin_Module__state__V)
                  2001bc30    0000000b     stk.aem4f : tcpout.oem4f (.data)
                  2001bc3b    00000001     --HOLE--
                  2001bc3c    00000008     rtsv7M4_T_le_v4SPD16_eabi.lib : _lock.obj (.data:$O1$$)
                  2001bc44    00000008     EK_TM4C1294XL.obj (.data:NIMUDeviceTable)
                  2001bc4c    00000008     EK_TM4C1294XL.obj (.data:gpioCallbackFunctions)
                  2001bc54    00000008     netctrl_min_ipv4.aem4f : netsrv.oem4f (.data)
                  2001bc5c    00000008     stk.aem4f : exec.oem4f (.data)
                  2001bc64    00000008               : icmp.oem4f (.data)
                  2001bc6c    00000008               : ip.oem4f (.data)
                  2001bc74    00000008               : ipin.oem4f (.data)
                  2001bc7c    00000008               : lli.oem4f (.data)
                  2001bc84    00000008               : tcp.oem4f (.data)
                  2001bc8c    00000008               : timer.oem4f (.data)
                  2001bc94    00000008     ti.uia.runtime.aem4f : QueueDescriptor.oem4f (.data)
                  2001bc9c    00000008     RTOS_16eth_pem4f.oem4f (.data:ti_sysbios_family_arm_lm4_TimestampProvider_Module__state__V)
                  2001bca4    00000008     RTOS_16eth_pem4f.oem4f (.data:ti_sysbios_family_arm_m3_Hwi_Module__root__V)
                  2001bcac    00000008     RTOS_16eth_pem4f.oem4f (.data:ti_sysbios_gates_GateHwi_Module__root__V)
                  2001bcb4    00000008     RTOS_16eth_pem4f.oem4f (.data:ti_sysbios_gates_GateMutex_Module__root__V)
                  2001bcbc    00000008     RTOS_16eth_pem4f.oem4f (.data:ti_sysbios_heaps_HeapMem_Module__root__V)
                  2001bcc4    00000008     RTOS_16eth_pem4f.oem4f (.data:ti_sysbios_knl_Clock_Module__root__V)
                  2001bccc    00000008     RTOS_16eth_pem4f.oem4f (.data:ti_sysbios_knl_Queue_Module__root__V)
                  2001bcd4    00000008     RTOS_16eth_pem4f.oem4f (.data:ti_sysbios_knl_Semaphore_Module__root__V)
                  2001bcdc    00000008     RTOS_16eth_pem4f.oem4f (.data:ti_sysbios_knl_Swi_Module__root__V)
                  2001bce4    00000008     RTOS_16eth_pem4f.oem4f (.data:ti_uia_loggers_LoggerStopMode_Module__root__V)
                  2001bcec    00000008     RTOS_16eth_pem4f.oem4f (.data:xdc_runtime_Registry_Module__state__V)
                  2001bcf4    00000008     RTOS_16eth_pem4f.oem4f (.data:xdc_runtime_Startup_Module__state__V)
                  2001bcfc    00000008     RTOS_16eth_pem4f.oem4f (.data:xdc_runtime_System_Module_State_0_atexitHandlers__A)
                  2001bd04    00000008     RTOS_16eth_pem4f.oem4f (.data:xdc_runtime_System_Module__state__V)
                  2001bd0c    00000006     EK_TM4C1294XL.obj (.data:macAddress)
                  2001bd12    00000006     stk.aem4f : lliout.oem4f (.data)
                  2001bd18    00000005     drivers_tivaware.aem4f : GPIOTiva.oem4f (.data)
                  2001bd1d    00000001     --HOLE--
                  2001bd1e    00000002     RTOS_16eth_pem4f.oem4f (.data:xdc_runtime_Main_Module__root__V)
                  2001bd20    00000004     drivers_tivaware.aem4f : EMAC.oem4f (.data)
                  2001bd24    00000004     hal_timer_bios.aem4f : lltimer.oem4f (.data)
                  2001bd28    00000004     nettool_ipv4.aem4f : config.oem4f (.data)
                  2001bd2c    00000004     rtsv7M4_T_le_v4SPD16_eabi.lib : errno.obj (.data)
                  2001bd30    00000004                                   : stkdepth_vars.obj (.data)
                  2001bd34    00000004     stk.aem4f : bind.oem4f (.data)
                  2001bd38    00000004               : ipfrag.oem4f (.data)
                  2001bd3c    00000004               : lliin.oem4f (.data)
                  2001bd40    00000004               : node.oem4f (.data)
                  2001bd44    00000004               : pbm.oem4f (.data)
                  2001bd48    00000004     RTOS_16eth_pem4f.oem4f (.data:ti_sysbios_family_arm_m3_Hwi_Module_State_0_excContext__A)
                  2001bd4c    00000004     RTOS_16eth_pem4f.oem4f (.data:ti_sysbios_family_arm_m3_Hwi_Module_State_0_excStack__A)
                  2001bd50    00000004     RTOS_16eth_pem4f.oem4f (.data:ti_sysbios_gates_GateHwi_Object__table__V)
                  2001bd54    00000004     RTOS_16eth_pem4f.oem4f (.data:ti_sysbios_knl_Task_Module_State_0_idleTask__A)
                  2001bd58    00000004     RTOS_16eth_pem4f.oem4f (.data:ti_sysbios_utils_Load_Module_State_0_runningTask__A)
                  2001bd5c    00000004     RTOS_16eth_pem4f.oem4f (.data:ti_sysbios_utils_Load_Module_State_0_taskStartTime__A)
                  2001bd60    00000004     RTOS_16eth_pem4f.oem4f (.data:xdc_runtime_Memory_Module__state__V)

.stack     0    2001bd64    00000300     UNINITIALIZED
                  2001bd64    00000300     --HOLE--

.bootVecs 
*          0    00000000    00000008     DSECT
                  00000000    00000008     boot.aem4f : boot.oem4f (.bootVecs)

xdc.meta   0    00000000    000000d8     COPY SECTION
                  00000000    000000d8     RTOS_16eth_pem4f.oem4f (xdc.meta)

MODULE SUMMARY

       Module                       code    ro data   rw data
       ------                       ----    -------   -------
    .\
       main16eth.obj                7622    51        38992  
       EK_TM4C1294XL.obj            492     60        58     
       ADC_pinout.obj               256     0         0      
       tcpEchoHooks.obj             138     0         0      
    +--+----------------------------+-------+---------+---------+
       Total:                       8508    111       39050  
                                                             
    C:\Protegemed\ADC_16CH_ETH\Debug\configPkg\package\cfg\
       RTOS_16eth_pem4f.oem4f       4573    11105     71694  
    +--+----------------------------+-------+---------+---------+
       Total:                       4573    11105     71694  
                                                             
    C:/ti/tirtos_tivac_2_16_01_14/products/TivaWare_C_Series-2.1.1.71b/driverlib/ccs/Debug/driverlib.lib
       sysctl.obj                   810     452       0      
       emac.obj                     756     24        0      
       gpio.obj                     572     144       0      
       udma.obj                     448     0         0      
       adc.obj                      294     0         0      
       interrupt.obj                136     112       0      
       timer.obj                    220     0         0      
       cpu.obj                      24      0         0      
       flash.obj                    20      0         0      
    +--+----------------------------+-------+---------+---------+
       Total:                       3280    732       0      
                                                             
    C:/ti/tirtos_tivac_2_16_01_14/products/tidrivers_tivac_2_16_01_13/packages/ti/drivers/lib/drivers_tivaware.aem4f
       EMACSnow.oem4f               2006    8         406    
       GPIOTiva.oem4f               844     156       153    
       EMAC.oem4f                   52      0         4      
    +--+----------------------------+-------+---------+---------+
       Total:                       2902    164       563    
                                                             
    C:\Protegemed\ADC_16CH_ETH\src\sysbios\sysbios.aem4f
       BIOS.obj                     18844   0         0      
       m3_Hwi_asm.obj               314     0         0      
       m3_TaskSupport_asm.obj       180     0         0      
       m3_Hwi_asm_switch.obj        118     0         0      
    +--+----------------------------+-------+---------+---------+
       Total:                       19456   0         0      
                                                             
    C:\ti\CMSIS-SP-00300-r4p5-00rel0\CMSIS\Lib\CCS\M4\dsplib-cm4f.lib
       arm_common_tables.obj        0       78936     0      
       arm_cfft_radix8_f32.obj      1740    0         0      
       arm_cfft_f32.obj             1718    0         0      
       arm_rfft_fast_f32.obj        376     0         0      
       arm_cmplx_mag_f32.obj        316     0         0      
       arm_rfft_fast_init_f32.obj   252     0         0      
       arm_bitreversal2.obj         192     0         0      
       arm_rms_f32.obj              128     0         0      
       arm_scale_f32.obj            108     0         0      
    +--+----------------------------+-------+---------+---------+
       Total:                       4830    78936     0      
                                                             
    C:\ti\ccsv6\tools\compiler\ti-cgt-arm_15.12.1.LTS\lib\rtsv7M4_T_le_v4SPD16_eabi.lib
       trgdrv.obj                   804     0         8      
       trgmsg.obj                   104     0         288    
       memcpy_t2.obj                156     0         0      
       memset_t2.obj                122     0         0      
       copy_decompress_rle.obj      112     0         0      
       exit.obj                     84      0         12     
       cpy_tbl.obj                  76      0         0      
       u_divt2.obj                  64      0         0      
       e_sqrtf.obj                  40      0         0      
       _lock.obj                    20      0         8      
       args_main.obj                24      0         0      
       strcmp.obj                   24      0         0      
       strcpy.obj                   20      0         0      
       strlen.obj                   20      0         0      
       copy_decompress_none.obj     14      0         0      
       errno.obj                    0       0         4      
       stkdepth_vars.obj            0       0         4      
       i_div0.obj                   2       0         0      
    +--+----------------------------+-------+---------+---------+
       Total:                       1686    0         324    
                                                             
    C:\ti\tirtos_tivac_2_16_01_14\products\bios_6_45_02_31\packages\ti\catalog\arm\cortexm4\tiva\ce\lib\Boot.aem4f
       Boot_sysctl.oem4f            628     452       0      
       Boot.oem4f                   152     0         0      
    +--+----------------------------+-------+---------+---------+
       Total:                       780     452       0      
                                                             
    C:\ti\tirtos_tivac_2_16_01_14\products\bios_6_45_02_31\packages\ti\targets\arm\rtsarm\lib\auto_init.aem4f
       auto_init.oem4f              160     0         0      
    +--+----------------------------+-------+---------+---------+
       Total:                       160     0         0      
                                                             
    C:\ti\tirtos_tivac_2_16_01_14\products\bios_6_45_02_31\packages\ti\targets\arm\rtsarm\lib\boot.aem4f
       boot.oem4f                   88      0         0      
    +--+----------------------------+-------+---------+---------+
       Total:                       88      0         0      
                                                             
    C:\ti\tirtos_tivac_2_16_01_14\products\bios_6_45_02_31\packages\ti\targets\arm\rtsarm\lib\ti.targets.arm.rtsarm.aem4f
       System.oem4f                 1277    0         0      
       Text.oem4f                   672     0         0      
       Error.oem4f                  528     0         0      
       Core-mem.oem4f               358     0         0      
       Startup.oem4f                328     0         0      
       SysMin.oem4f                 248     0         0      
       Core-smem.oem4f              204     0         0      
       Memory.oem4f                 176     0         0      
       Assert.oem4f                 84      0         0      
       Core-params.oem4f            70      0         0      
       Core-label.oem4f             52      0         0      
       Registry.oem4f               32      0         0      
       Gate.oem4f                   28      0         0      
       xdc_noinit.oem4f             6       0         0      
    +--+----------------------------+-------+---------+---------+
       Total:                       4063    0         0      
                                                             
    C:\ti\tirtos_tivac_2_16_01_14\products\ndk_2_25_00_09\packages\ti\ndk\hal\ser_stub\lib\hal_ser_stub.aem4f
       llserstb.oem4f               10      0         0      
    +--+----------------------------+-------+---------+---------+
       Total:                       10      0         0      
                                                             
    C:\ti\tirtos_tivac_2_16_01_14\products\ndk_2_25_00_09\packages\ti\ndk\hal\timer_bios\lib\hal_timer_bios.aem4f
       lltimer.oem4f                252     0         28     
    +--+----------------------------+-------+---------+---------+
       Total:                       252     0         28     
                                                             
    C:\ti\tirtos_tivac_2_16_01_14\products\ndk_2_25_00_09\packages\ti\ndk\hal\userled_stub\lib\hal_userled_stub.aem4f
       llled.oem4f                  6       0         0      
    +--+----------------------------+-------+---------+---------+
       Total:                       6       0         0      
                                                             
    C:\ti\tirtos_tivac_2_16_01_14\products\ndk_2_25_00_09\packages\ti\ndk\netctrl\lib\netctrl_min_ipv4.aem4f
       netsrv.oem4f                 1122    0         352    
       netctrl.oem4f                884     0         60     
    +--+----------------------------+-------+---------+---------+
       Total:                       2006    0         412    
                                                             
    C:\ti\tirtos_tivac_2_16_01_14\products\ndk_2_25_00_09\packages\ti\ndk\nettools\lib\nettool_ipv4.aem4f
       config.oem4f                 1760    0         4      
       dhcpsm.oem4f                 1028    0         0      
       dhcpbild.oem4f               508     0         0      
       dhcppkt.oem4f                462     0         0      
       dhcpmain.oem4f               406     0         0      
       dhcptags.oem4f               264     0         77     
       dhcpsock.oem4f               332     0         0      
       inetaddr.oem4f               276     0         0      
       ipaddr.oem4f                 190     0         4      
    +--+----------------------------+-------+---------+---------+
       Total:                       5226    0         85     
                                                             
    C:\ti\tirtos_tivac_2_16_01_14\products\ndk_2_25_00_09\packages\ti\ndk\os\lib\os.aem4f
       mem.oem4f                    1312    0         148    
       task.oem4f                   1054    0         24     
       semaphore.oem4f              226     0         0      
       ossys.oem4f                  140     0         36     
    +--+----------------------------+-------+---------+---------+
       Total:                       2732    0         208    
                                                             
    C:\ti\tirtos_tivac_2_16_01_14\products\ndk_2_25_00_09\packages\ti\ndk\stack\lib\stk.aem4f
       tcpin.oem4f                  3312    0         0      
       sock.oem4f                   3010    0         0      
       tcpout.oem4f                 2608    0         11     
       igmp.oem4f                   1584    0         308    
       nimu.oem4f                   1549    0         100    
       sockpcb.oem4f                1422    0         24     
       rtable.oem4f                 1138    0         24     
       tcpprot.oem4f                1118    0         0      
       node.oem4f                   1079    0         4      
       ipout.oem4f                  1032    0         0      
       udp.oem4f                    968     0         48     
       ipin.oem4f                   998     0         8      
       tcptime.oem4f                821     0         52     
       socket.oem4f                 828     0         0      
       sb.oem4f                     826     0         0      
       icmpin.oem4f                 756     0         0      
       icmp.oem4f                   580     0         160    
       ipfrag.oem4f                 712     0         4      
       rtc.oem4f                    592     62        60     
       sockint.oem4f                704     0         0      
       route.oem4f                  702     0         0      
       lliout.oem4f                 672     0         6      
       tcp.oem4f                    472     0         204    
       lli.oem4f                    652     0         8      
       bind.oem4f                   650     0         4      
       lliin.oem4f                  592     0         4      
       pbm.oem4f                    574     0         16     
       exec.oem4f                   302     0         236    
       rawethsock.oem4f             536     0         0      
       ip.oem4f                     378     0         120    
       vlan.oem4f                   396     0         40     
       raw.oem4f                    400     0         16     
       pipe.oem4f                   410     0         0      
       file.oem4f                   398     0         0      
       fileuser.oem4f               312     0         0      
       timer.oem4f                  258     0         8      
       raweth.oem4f                 224     0         16     
       rawethsock_pcb.oem4f         236     0         4      
       sockprot.oem4f               98      84        0      
       listlib.oem4f                110     0         0      
       rawethsock_prot.oem4f        8       0         0      
       nat.oem4f                    2       0         0      
    +--+----------------------------+-------+---------+---------+
       Total:                       34019   146       1485   
                                                             
    C:\ti\tirtos_tivac_2_16_01_14\products\uia_2_00_05_50\packages\ti\uia\loggers\lib\release\ti.uia.loggers.aem4f
       LoggerStopMode.oem4f         552     0         0      
    +--+----------------------------+-------+---------+---------+
       Total:                       552     0         0      
                                                             
    C:\ti\tirtos_tivac_2_16_01_14\products\uia_2_00_05_50\packages\ti\uia\runtime\lib\release\ti.uia.runtime.aem4f
       QueueDescriptor.oem4f        116     0         8      
    +--+----------------------------+-------+---------+---------+
       Total:                       116     0         8      
                                                             
       Stack:                       0       0         768    
       Linker Generated:            0       2017      0      
    +--+----------------------------+-------+---------+---------+
       Grand Total:                 95245   93663     114625 


LINKER GENERATED COPY TABLES

__TI_cinit_table @ 0002e274 records: 3, size/record: 8, table size: 24
	.data: load addr=0002daa0, load size=000007a9 bytes, run addr=2001b0ec, run size=00000c78 bytes, compression=rle
	.bss: load addr=0002e250, load size=0000000d bytes, run addr=20000400, run size=0001acec bytes, compression=rle
	.vecs: load addr=0002e260, load size=0000000b bytes, run addr=20000000, run size=00000360 bytes, compression=rle


LINKER GENERATED HANDLER TABLE

__TI_handler_table @ 0002e26c records: 2, size/record: 4, table size: 8
	index: 0, handler: __TI_decompress_rle24
	index: 1, handler: __TI_decompress_none


GLOBAL SYMBOLS: SORTED ALPHABETICALLY BY Name 

address   name                                                                 
-------   ----                                                                 
000169e1  ADCClockConfigSet                                                    
00016f29  ADCHardwareOversampleConfigure                                       
00004955  ADCIntClearEx                                                        
00017419  ADCIntEnableEx                                                       
0001722f  ADCReferenceSet                                                      
000147c1  ADCSequenceConfigure                                                 
00016ff5  ADCSequenceDMAEnable                                                 
000171a9  ADCSequenceDisable                                                   
000171b7  ADCSequenceEnable                                                    
00010961  ADCSequenceStepConfigure                                             
0002d1e4  ADC_Seq0_Handle                                                      
000031d1  ADC_Seq0_ISR                                                         
0002d200  ADC_Seq1_Handle                                                      
00002c69  ADC_Seq1_ISR                                                         
000075f1  ADC_init                                                             
00015fed  BindFindByHost                                                       
000166ad  BindFindByIF                                                         
00015cb1  BindFindByNet                                                        
00012da1  BindFree                                                             
0001723d  BindGetFirst                                                         
00004f1d  BindGetIF                                                            
00016011  BindGetIFByDBCast                                                    
00016889  BindGetIP                                                            
00005465  BindGetNext                                                          
00017005  BindIF2IPHost                                                        
00017015  BindIFNet2IPHost                                                     
00016d5d  BindIPHost2IF                                                        
00009021  BindNew                                                              
2001af54  BlockCount                                                           
2001afb0  BlockMax                                                             
0001325d  C$$EXIT                                                              
00011ebf  C$$IO$$                                                              
00017249  CPUcpsid                                                             
00017255  CPUcpsie                                                             
000093e9  CfgAddEntry                                                          
000130b9  CfgEntryDeRef                                                        
00014935  CfgEntryGetData                                                      
00015ee1  CfgEntryInfo                                                         
00016309  CfgEntryRef                                                          
0000f50d  CfgExecute                                                           
0001202d  CfgFree                                                              
0000fde1  CfgGetEntry                                                          
00012415  CfgGetEntryCnt                                                       
000153e9  CfgGetImmediate                                                      
000105fd  CfgGetNextEntry                                                      
00013a6f  CfgNew                                                               
0000f3e1  CfgRemoveEntry                                                       
00017261  CfgSetDefault                                                        
00012955  CfgSetExecuteOrder                                                   
00014fd1  CfgSetService                                                        
0002d130  Code2Err                                                             
000147ff  DHCPClose                                                            
00008c31  DHCPOpen                                                             
0000c6e1  DMA_init                                                             
00011779  DbgPrintf                                                            
2001bb80  DomainName                                                           
00009ee5  EK_TM4C1294XL_initEMAC                                               
00017421  EK_TM4C1294XL_initGPIO                                               
0000e0cd  EK_TM4C1294XL_initGeneral                                            
000155e3  EMACAddrSet                                                          
00014c89  EMACConfigGet                                                        
00015005  EMACConfigSet                                                        
00017025  EMACFrameFilterSet                                                   
00010ad1  EMACInit                                                             
00015039  EMACIntClear                                                         
00014971  EMACIntDisable                                                       
00014c4d  EMACIntEnable                                                        
00015917  EMACIntStatus                                                        
00012e51  EMACPHYConfigSet                                                     
00015f07  EMACPHYRead                                                          
00015f2d  EMACPHYWrite                                                         
00016c81  EMACReset                                                            
000155ab  EMACRxDMADescriptorListSet                                           
00016c97  EMACRxEnable                                                         
0000da09  EMACSnow_InitDMADescriptors                                          
00006d9d  EMACSnow_NIMUInit                                                    
0001506d  EMACSnow_emacPoll                                                    
000169f9  EMACSnow_emacSend                                                    
0000af4d  EMACSnow_emacStart                                                   
0001017d  EMACSnow_emacStop                                                    
000171c5  EMACSnow_emacioctl                                                   
0002d74c  EMACSnow_fxnTable                                                    
00010679  EMACSnow_hwiIntFxn                                                   
0001726d  EMACSnow_init                                                        
000150a1  EMACSnow_isLinkUp                                                    
00016035  EMACSnow_pkt_service                                                 
0000fe65  EMACSnow_processPhyInterrupt                                         
00016973  EMACTxDMADescriptorListSet                                           
00017429  EMACTxDMAPollDemand                                                  
00016cad  EMACTxEnable                                                         
0002d63c  EMAC_config                                                          
000150d5  EMAC_init                                                            
00015109  ExecClose                                                            
00017035  ExecHRef                                                             
000171d3  ExecLowResource                                                      
0000efa5  ExecOpen                                                             
0001607d  ExecTimer                                                            
0002d1f8  FFTCalc_Handle                                                       
00004c3d  FFTCalc_Task                                                         
00015943  FdSignalEvent                                                        
00012475  FdWaitEvent                                                          
00016d71  FlashUserGet                                                         
00015bdd  GPIODirModeSet                                                       
00016fbb  GPIOIntClear                                                         
000171e1  GPIOIntStatus                                                        
00013061  GPIOIntTypeSet                                                       
00009db5  GPIOPadConfigSet                                                     
00013ab9  GPIOPinConfigure                                                     
0001720b  GPIOPinRead                                                          
00016f3b  GPIOPinTypeADC                                                       
00016f4d  GPIOPinTypeEthernetLED                                               
00017469  GPIOPinWrite                                                         
0002d6cc  GPIOTiva_config                                                      
00012091  GPIO_hwiIntFxn                                                       
0000f871  GPIO_init                                                            
00013405  GPIO_setCallback                                                     
00008d89  GPIO_setConfig                                                       
00013455  GPIO_toggle                                                          
000134a5  GPIO_write                                                           
2001bb7c  GatewayIP                                                            
00004907  HOSTclock                                                            
000048cf  HOSTclose                                                            
00004891  HOSTgetenv                                                           
00004835  HOSTlseek                                                            
000047e3  HOSTopen                                                             
00004797  HOSTread                                                             
00004739  HOSTrename                                                           
000046ff  HOSTtime                                                             
000046b5  HOSTtime64                                                           
0000467d  HOSTunlink                                                           
00004631  HOSTwrite                                                            
00016d85  HeartBeat_Idle                                                       
00014125  ICMPChecksum                                                         
00009b4d  ICMPGenPacket                                                        
00005b51  ICMPInput                                                            
0000d3ad  ICMPSendRtAdv                                                        
00007789  IGMPInput                                                            
00010771  IGMPJoin                                                             
0001310d  IGMPLeave                                                            
00010e91  IGMPLeaveHostGroup                                                   
0000f59d  IGMPMsg                                                              
00015971  IGMPTestGroup                                                        
00014f99  IPChecksum                                                           
0000ebe9  IPGetRoute                                                           
0000f8fd  IPMsg                                                                
000056bd  IPReasm                                                              
00014169  IPReasmFree                                                          
00014cc1  IPReasmTimeout                                                       
00016a11  IPRtChange                                                           
00003f61  IPRxPacket                                                           
00003b59  IPTxPacket                                                           
00016a29  InitSamples                                                          
0002d1e8  InitSamples_Handle                                                   
00011c21  IntEnable                                                            
00017045  IntMasterDisable                                                     
00017055  IntMasterEnable                                                      
00002c67  LED_TOGGLE                                                           
00015cd9  LLIFree                                                              
0000c331  LLIGenArpPacket                                                      
000141ad  LLIGetValidTime                                                      
00013b01  LLIMsg                                                               
0001027d  LLINew                                                               
00007105  LLIRxPacket                                                          
00006f55  LLITxIpPacket                                                        
0001463d  LLIValidateRoute                                                     
2001bb74  LocalIPAddr                                                          
2001bb78  LocalIPMask                                                          
000163b5  NC_BootComplete                                                      
00017065  NC_IPUpdate                                                          
00008241  NC_NetStart                                                          
00016d99  NC_NetStop                                                           
00015d01  NC_SystemClose                                                       
0000f219  NC_SystemOpen                                                        
000112ab  NDK_accept                                                           
000134f5  NDK_bind                                                             
0001599d  NDK_hookCreate                                                       
00016dad  NDK_hookExit                                                         
00017279  NDK_hookInit                                                         
00014575  NDK_listen                                                           
0001154d  NDK_recv                                                             
0001131b  NDK_send                                                             
00010b49  NDK_sendto                                                           
000107ed  NDK_setsockopt                                                       
00011c89  NDK_socket                                                           
000166e5  NDK_sprintf                                                          
000063cd  NDK_vsprintf                                                         
0000ee69  NIMUAddEthernetHeader                                                
00016701  NIMUAddHeader                                                        
00015d29  NIMUCreatePacket                                                     
2001bc44  NIMUDeviceTable                                                      
000160a1  NIMUFindByIndex                                                      
0001513d  NIMUFindByName                                                       
00017075  NIMUGetRsvdSizeInfo                                                  
00015171  NIMUInit                                                             
0000a6cd  NIMUIoctl                                                            
00015d51  NIMUPacketService                                                    
000159f5  NIMUPacketServiceCheck                                               
0000d2d9  NIMUReceivePacket                                                    
00010869  NIMURegister                                                         
00016dc1  NIMUSendPacket                                                       
00017285  NIMUSetRsvdSizeInfo                                                  
00010f05  NIMUShutdown                                                         
000124d5  NIMUUnregister                                                       
000102fd  NS_BootTask                                                          
00015645  NS_PreBoot                                                           
00008807  NatMsg                                                               
0000ccf9  NodeAdd                                                              
000136d5  NodeDeRef                                                            
00012535  NodeFind                                                             
00014cf9  NodeGetRt                                                            
00007dcd  NodeSetRt                                                            
0000a8f5  NodeTreeFree                                                         
000117e5  NodeTreeNew                                                          
00013b49  NodeWalk                                                             
00017291  NotifyLowResource                                                    
00013771  NtAddNetwork                                                         
00013f81  NtIfIdx2Ip                                                           
00016dd5  NtRemoveNetwork                                                      
00017491  OEMSysCritOff                                                        
00017311  OEMSysCritOn                                                         
00015c07  PBMQ_deq                                                             
000120f5  PBMQ_enq                                                             
20009cf4  PBMQ_free                                                            
0001037d  PBM_alloc                                                            
0001729d  PBM_close                                                            
0001467d  PBM_copy                                                             
000108e5  PBM_free                                                             
00011cf1  PBM_open                                                             
2001ba98  PITCount                                                             
2001baa0  PITHigh                                                              
2001ba9c  PITUsed                                                              
2001afcc  PageCount                                                            
2001afe8  PageMax                                                              
0000b779  PinoutSetADC                                                         
00015a21  PipeClose                                                            
0000bd6d  PipeRecv                                                             
00010da1  PipeSend                                                             
0002d1f0  RMSCalc_Handle                                                       
00000ca9  RMSCalc_Task                                                         
000160c5  RTCAddHook                                                           
00012595  RTCMsg                                                               
000163f5  RTCRemoveHook                                                        
0000852d  RTCReport                                                            
00010f79  RawEthRxPacket                                                       
00015f53  RawEthSockClose                                                      
0000d879  RawEthSockNew                                                        
000151a5  RawEthSockNotify                                                     
00013161  RawEthSockPcbAttach                                                  
00016a41  RawEthSockPcbCleanup                                                 
00013b91  RawEthSockPcbDetach                                                  
000160e9  RawEthSockPcbFind                                                    
00016de9  RawEthSockPcbInit                                                    
000080c5  RawEthSockPrAttach                                                   
000083b5  RawEthSockPrDetach                                                   
00013fc7  RawEthSockSend                                                       
0000e5d5  RawEthSockSet                                                        
00011851  RawEthTxPacket                                                       
0000aa05  RawInput                                                             
000103fd  RawOutput                                                            
000141f1  RouteMsg                                                             
0000ae41  RtCreate                                                             
0001541b  RtDeRef                                                              
0000ac29  RtFind                                                               
00012bdd  RtRedirect                                                           
00012839  RtRemove                                                             
0001544d  RtSetFailure                                                         
00016131  RtSetTimeout                                                         
000149e9  RtWalkBegin                                                          
00014235  RtWalkEnd                                                            
000115bd  RtWalkNext                                                           
0001547f  SBFlush                                                              
000158e9  SBFree                                                               
000123b1  SBNew                                                                
0000869d  SBRead                                                               
000154b1  SBSetMax                                                             
0000c989  SBWrite                                                              
UNDEFED   SHT$$INIT_ARRAY$$Base                                                
UNDEFED   SHT$$INIT_ARRAY$$Limit                                               
00012f01  SemCreate                                                            
00011239  SemCreateBinary                                                      
000172a9  SemDelete                                                            
00008acd  SemPend                                                              
000092a5  SemPost                                                              
0000a37d  SemReset                                                             
000109db  SockAccept                                                           
00015675  SockBind                                                             
000131b5  SockCleanPcb                                                         
0000c421  SockClose                                                            
0000896d  SockConnect                                                          
0000e9ed  SockCreatePacket                                                     
000139db  SockDisconnect                                                       
000156a5  SockGetName                                                          
000154e3  SockIntAbort                                                         
00011d59  SockListen                                                           
00007ab9  SockNew                                                              
00009525  SockNotify                                                           
00015a4d  SockPcbAttach                                                        
0000d205  SockPcbBind                                                          
00016155  SockPcbCleanup                                                       
00010fed  SockPcbConnect                                                       
0000fcd1  SockPcbCtlError                                                      
00014279  SockPcbDetach                                                        
0000a011  SockPcbResolve                                                       
00013bd9  SockPcbResolveChain                                                  
000146bd  SockPcbRtChange                                                      
00016f5f  SockPrAttach                                                         
000151d9  SockPrCtlError                                                       
0001671d  SockPrDetach                                                         
000067cd  SockRecv                                                             
00009661  SockSend                                                             
000051e1  SockSet                                                              
00016f71  SockSetOOBData                                                       
000168a3  SockSetOOBMark                                                       
0001146d  SockShutdown                                                         
00012159  SockSpawnAbort                                                       
000137bd  SockValidateRoute                                                    
00005fc5  SysCtlClockFreqSet                                                   
0001746f  SysCtlDelay                                                          
0001520d  SysCtlPeripheralEnable                                               
00014d31  SysCtlPeripheralReady                                                
00013595  SysCtlPeripheralReset                                                
00011dc1  TIMER_init                                                           
00017439  TaskBlock                                                            
0001487b  TaskCreate                                                           
00016739  TaskDestroy                                                          
0000b059  TaskExit                                                             
0000c055  TaskGetEnv                                                           
0000ab15  TaskSelf                                                             
0000c511  TaskSetEnv                                                           
0000b055  TaskSetPri                                                           
000063d1  TaskSleep                                                            
000125f5  TcpChecksum                                                          
00014d69  TcpClose                                                             
00013c21  TcpDrop                                                              
0000a49d  TcpGenPacket                                                         
00000041  TcpInput                                                             
0000162d  TcpOutput                                                            
0000fee9  TcpPrAttach                                                          
00014a25  TcpPrConnect                                                         
0001400d  TcpPrCtlError                                                        
000133b1  TcpPrDetach                                                          
000148b9  TcpPrDisconnect                                                      
00011b4d  TcpPrInherit                                                         
00016179  TcpPrListen                                                          
00017475  TcpPrRecv                                                            
000146fd  TcpPrSend                                                            
000145b7  TcpPrSendOOB                                                         
0000cdd1  TcpPrSetOption                                                       
00014a61  TcpSetPersist                                                        
00016b31  TcpTimeoutAdd                                                        
00009165  TcpTimeoutCheck                                                      
0000e3b1  TcpTimeoutKeep                                                       
00013209  TcpTimeoutPersist                                                    
00016415  TcpTimeoutRemove                                                     
0000c8a9  TcpTimeoutRexmt                                                      
00010e19  TcpTimeoutSackRexmt                                                  
0001619d  TcpTimeoutWait2                                                      
00012c37  TcpValidateMetrics                                                   
00010bc1  TcpXmitTimer                                                         
0000b265  TimerADCEventSet                                                     
00012655  TimerConfigure                                                       
00012f59  TimerControlTrigger                                                  
000171ef  TimerEnable                                                          
00016dfd  TimerFree                                                            
00014da1  TimerHSTick                                                          
00016f83  TimerLoadSet                                                         
00013a25  TimerNew                                                             
000118bd  UdpChecksum                                                          
00005d8d  UdpInput                                                             
0000a135  UdpOutput                                                            
0000de91  VLANDeinit                                                           
00015df1  VLANInit                                                             
000128f5  VLANReceivePacket                                                    
20009ca8  _ICMPIn                                                              
2001bc64  _ICMPInErrors                                                        
2001ade8  _ICMPOut                                                             
2001bc68  _ICMPOutErrors                                                       
2001bbec  _IGMPForceVersion1                                                   
2001b0ac  _IGMPInDiscard                                                       
2001b0b0  _IGMPInQuery                                                         
2001b0b4  _IGMPInQueryGroup                                                    
2001b0b8  _IGMPInResponse                                                      
2001b0bc  _IGMPOutResponse                                                     
2001bc6c  _IPExecuting                                                         
2001bd38  _IPReasmPtr                                                          
00013c69  _LLIExpListInsert                                                    
00015a79  _LLIExpListRemove                                                    
0000e23d  _LLITimeoutCheck                                                     
00015aa5  _LLITimeoutFlush                                                     
00013cb1  _RtExpListInsert                                                     
00015ad1  _RtExpListRemove                                                     
00011e29  _RtNodeInsert                                                        
00014ad9  _RtNodeRemove                                                        
0000af4b  _TaskInit                                                            
0000d3ab  _TaskShutdown                                                        
00000000  __ASM__                                                              
2001a760  __CIOBUF_                                                            
00000056  __ISA__                                                              
00000069  __PLAT__                                                             
2001c064  __STACK_END                                                          
00000300  __STACK_SIZE                                                         
0000008a  __TARG__                                                             
0002e274  __TI_CINIT_Base                                                      
0002e28c  __TI_CINIT_Limit                                                     
0002e26c  __TI_Handler_Table_Base                                              
0002e274  __TI_Handler_Table_Limit                                             
0000ec89  __TI_auto_init                                                       
2001bbf4  __TI_cleanup_ptr                                                     
000171fd  __TI_decompress_none                                                 
00017481  __TI_decompress_rle24                                                
2001bbf8  __TI_dtors_ptr                                                       
2001bbfc  __TI_enable_exit_profile_output                                      
ffffffff  __TI_pprof_out_hndl                                                  
ffffffff  __TI_prof_data_size                                                  
ffffffff  __TI_prof_data_start                                                 
00011ec3  __TI_readmsg                                                         
0002daa0  __TI_static_base__                                                   
00011e91  __TI_writemsg                                                        
000000b0  __TRDR__                                                             
00010acf  __aeabi_idiv0                                                        
00010a55  __aeabi_memclr                                                       
00010a55  __aeabi_memclr4                                                      
00010a55  __aeabi_memclr8                                                      
0000f041  __aeabi_memcpy                                                       
0000f041  __aeabi_memcpy4                                                      
0000f041  __aeabi_memcpy8                                                      
00010a57  __aeabi_memset                                                       
00010a57  __aeabi_memset4                                                      
00010a57  __aeabi_memset8                                                      
0001473d  __aeabi_uidiv                                                        
0001473d  __aeabi_uidivmod                                                     
ffffffff  __binit__                                                            
ffffffff  __c_args__                                                           
2001bd64  __stack                                                              
0001747b  __xdc__init                                                          
2001bb84  __xdc__init__addr                                                    
00016b79  _args_main                                                           
00012df9  _c_int00                                                             
2001b27c  _ipcfg                                                               
0000b36d  _llSerialInit                                                        
0000f217  _llSerialServiceCheck                                                
0000fc47  _llSerialShutdown                                                    
00014b15  _llTimerInit                                                         
000172b5  _llTimerShutdown                                                     
0000fddf  _llUserLedInit                                                       
0001017b  _llUserLedShutdown                                                   
2001bc3c  _lock                                                                
0000f989  _mmInit                                                              
00016e47  _nop                                                                 
2001ba74  _oscfg                                                               
00016e3f  _register_lock                                                       
00016e39  _register_unlock                                                     
2001bc40  _unlock                                                              
00013261  abort                                                                
000293d4  armBitRevIndexTable1024                                              
0002c4d4  armBitRevIndexTable128                                               
0002d380  armBitRevIndexTable16                                                
00025614  armBitRevIndexTable2048                                              
0002bd64  armBitRevIndexTable256                                               
0002d01c  armBitRevIndexTable32                                                
0002b9e4  armBitRevIndexTable512                                               
0002ce64  armBitRevIndexTable64                                                
0000dcbf  arm_bitreversal_16                                                   
0000dc55  arm_bitreversal_32                                                   
00002b8d  arm_cfft_f32                                                         
00002a09  arm_cfft_radix8by2_f32                                               
000025b1  arm_cfft_radix8by4_f32                                               
0000979d  arm_cmplx_mag_f32                                                    
00001ee5  arm_radix8_butterfly_f32                                             
00008087  arm_rfft_fast_f32                                                    
0000ba75  arm_rfft_fast_init_f32                                               
0001047d  arm_rms_f32                                                          
00011929  arm_scale_f32                                                        
ffffffff  binit                                                                
2001b78c  buffer                                                               
00013809  copy_in                                                              
20011000  data_array1                                                          
20011800  data_array2                                                          
20012000  data_array3                                                          
20012800  data_array4                                                          
20013800  data_proc0                                                           
20018760  data_proc0_mag                                                       
20013c00  data_proc1                                                           
20014000  data_proc10                                                          
20018960  data_proc10_mag                                                      
20014400  data_proc11                                                          
20018b60  data_proc11_mag                                                      
20014800  data_proc12                                                          
20018d60  data_proc12_mag                                                      
20014c00  data_proc13                                                          
20018f60  data_proc13_mag                                                      
20015000  data_proc14                                                          
20019160  data_proc14_mag                                                      
20015400  data_proc15                                                          
20019360  data_proc15_mag                                                      
0002d1ec  data_proc1_Sem                                                       
0002d1f4  data_proc1_fft_Sem                                                   
20019560  data_proc1_mag                                                       
20015800  data_proc2                                                           
0002d1fc  data_proc2_Sem                                                       
20019760  data_proc2_mag                                                       
20015c00  data_proc3                                                           
0002d204  data_proc3_Sem                                                       
0002d20c  data_proc3_fft_Sem                                                   
20019960  data_proc3_mag                                                       
20016000  data_proc4                                                           
0002d208  data_proc4_Sem                                                       
20019b60  data_proc4_mag                                                       
20016400  data_proc5                                                           
20019d60  data_proc5_mag                                                       
20016800  data_proc6                                                           
20019f60  data_proc6_mag                                                       
20016c00  data_proc7                                                           
2001a160  data_proc7_mag                                                       
20017000  data_proc8                                                           
2001a360  data_proc8_mag                                                       
20017400  data_proc9                                                           
2001a560  data_proc9_mag                                                       
00012c91  dhcpBuildDecline                                                     
00014dd9  dhcpBuildDiscover                                                    
000126b5  dhcpBuildOptions                                                     
0000ef07  dhcpBuildRequest                                                     
000114dd  dhcpDecodeType                                                       
00014e11  dhcpOptionsClear                                                     
0000b475  dhcpPacketProcess                                                    
00015e19  dhcpPacketReceive                                                    
000156d5  dhcpPacketSend                                                       
00016b49  dhcpSocketClose                                                      
0000ca65  dhcpSocketOpen                                                       
0000cb41  dhcpState                                                            
0000d611  dhcpVerifyMessage                                                    
0002d71c  emacHWAttrs                                                          
2001b05c  emacObjects                                                          
2001b98c  enablePrefetch                                                       
2001bd2c  errno                                                                
00013269  exit                                                                 
0001057d  fdClose                                                              
000145f9  fdCloseSession                                                       
00010c39  fdOpenSession                                                        
00016cc3  fdint_freefdt                                                        
000168bd  fdint_getfdt                                                         
00013d41  fdint_lockfd                                                         
000173f1  fdint_signalevent                                                    
000173fb  fdint_signaltimeout                                                  
000148f7  fdint_unlockfd                                                       
00014e49  fdint_waitevent                                                      
2001b0c0  g_ulStatus                                                           
2001bc4c  gpioCallbackFunctions                                                
2001bb00  gpioPinConfigs                                                       
00016f95  inet_addr                                                            
0000b577  inet_aton                                                            
2001ad1c  ips                                                                  
00016b61  list_add                                                             
0000bc6d  list_get_head                                                        
0000d6dd  list_get_next                                                        
000165f9  list_remove                                                          
00015705  list_remove_node                                                     
0000b161  llEnter                                                              
00010cb1  llExit                                                               
000105fb  llSerialService                                                      
000172cd  llTimerGetStartTime                                                  
00014301  llTimerGetTime                                                       
000121bd  llTimerTick                                                          
2001bd0c  macAddress                                                           
00016617  main                                                                 
2001bd30  main_func_sp                                                         
0000f041  memcpy                                                               
00010a5d  memset                                                               
00007fef  merge_rfft_f32                                                       
00007455  mmAlloc                                                              
0000f62d  mmBulkAlloc                                                          
0000ff6d  mmBulkFree                                                           
00012ceb  mmCopy                                                               
0000fff1  mmFree                                                               
00014053  mmZeroInit                                                           
00011061  netOpenHook                                                          
2001ad84  nimu_mcb                                                             
00017119  osi_TaskDisable                                                      
000170b9  osi_start                                                            
2001b990  phyCounter                                                           
2001ba4c  pstrMsgName                                                          
2001bc88  ptTimeFirst                                                          
2001b0d4  raweth_pcb                                                           
2001b030  raweths                                                              
2001b040  raws                                                                 
2001b74c  rms0                                                                 
2001b750  rms1                                                                 
2001b774  rms10                                                                
2001b778  rms11                                                                
2001b77c  rms12                                                                
2001b780  rms13                                                                
2001b784  rms14                                                                
2001b788  rms15                                                                
2001b754  rms2                                                                 
2001b758  rms3                                                                 
2001b75c  rms4                                                                 
2001b760  rms5                                                                 
2001b764  rms6                                                                 
2001b768  rms7                                                                 
2001b76c  rms8                                                                 
2001b770  rms9                                                                 
00015e41  sqrtf                                                                
00007f4d  stage_rfft_f32                                                       
2001b004  stkEvent                                                             
00016b91  strcmp                                                               
00016e4d  strcpy                                                               
00016e61  strlen                                                               
00006bb5  tcpHandler                                                           
0000dd15  tcpWorker                                                            
2001bc84  tcp_iss                                                              
2001a980  tcps                                                                 
0002d78c  ti_catalog_arm_cortexm4_tiva_ce_Boot_A_mustNotUseEnhancedClockMode__C
0002d790  ti_catalog_arm_cortexm4_tiva_ce_Boot_Module__diagsEnabled__C         
0002d794  ti_catalog_arm_cortexm4_tiva_ce_Boot_Module__diagsIncluded__C        
0002d798  ti_catalog_arm_cortexm4_tiva_ce_Boot_Module__diagsMask__C            
0002d24e  ti_catalog_arm_cortexm4_tiva_ce_Boot_Module__id__C                   
00016fe5  ti_catalog_arm_cortexm4_tiva_ce_Boot_init__I                         
000061c9  ti_catalog_arm_cortexm4_tiva_ce_Boot_sysCtlClockFreqSetI__I          
0000f349  ti_catalog_arm_cortexm4_tiva_ce_Boot_sysCtlClockFreqSet__E           
2001bb70  ti_ndk_config_Global_HostName                                        
2001bb38  ti_ndk_config_Global_Id2Size                                         
0002d1d8  ti_ndk_config_Global_largest                                         
0002d1dc  ti_ndk_config_Global_numFrameBuf                                     
20009d00  ti_ndk_config_Global_pBufMem                                         
2000d900  ti_ndk_config_Global_pHdrMem                                         
20005400  ti_ndk_config_Global_pit                                             
200054a8  ti_ndk_config_Global_pitBuffer                                       
0002d1d0  ti_ndk_config_Global_rawPageCount                                    
0002d1cc  ti_ndk_config_Global_rawPageSize                                     
0002d1e0  ti_ndk_config_Global_sizeFrameBuf                                    
0002d1d4  ti_ndk_config_Global_smallest                                        
0000a259  ti_ndk_config_Global_stackThread                                     
0001678d  ti_ndk_config_global_taskCreateHook                                  
00016e89  ti_ndk_config_global_taskExitHook                                    
0000e895  ti_ndk_config_ip_init                                                
00012d45  ti_ndk_config_tcp_init                                               
00015f79  ti_ndk_config_udp_init                                               
2001babc  ti_sysbios_BIOS_Module__state__V                                     
0001690b  ti_sysbios_BIOS_RtsGateProxy_Handle__label__S                        
00016255  ti_sysbios_BIOS_RtsGateProxy_Object__delete__S                       
0000e00d  ti_sysbios_BIOS_RtsGateProxy_enter__E                                
0000e2f5  ti_sysbios_BIOS_RtsGateProxy_leave__E                                
000174c9  ti_sysbios_BIOS_RtsGateProxy_query__E                                
00015735  ti_sysbios_BIOS_atExitFunc__I                                        
00016671  ti_sysbios_BIOS_errorRaiseHook__I                                    
00016cd9  ti_sysbios_BIOS_exitFunc__I                                          
00017099  ti_sysbios_BIOS_getCpuFreq__E                                        
000172d9  ti_sysbios_BIOS_getThreadType__E                                     
00010e8f  ti_sysbios_BIOS_nullFunc__I                                          
000161e5  ti_sysbios_BIOS_registerRTSLock__I                                   
00016209  ti_sysbios_BIOS_removeRTSLock__I                                     
00016455  ti_sysbios_BIOS_rtsLock__I                                           
00016ba9  ti_sysbios_BIOS_rtsUnlock__I                                         
000170a9  ti_sysbios_BIOS_setThreadType__E                                     
00015e91  ti_sysbios_BIOS_startFunc__I                                         
000170b9  ti_sysbios_BIOS_start__E                                             
2001b8ac  ti_sysbios_family_arm_lm4_Timer_Module_State_0_device__A             
2001bae0  ti_sysbios_family_arm_lm4_Timer_Module_State_0_handles__A            
00016bc1  ti_sysbios_family_arm_lm4_Timer_Module__startupDone__F               
00016bc1  ti_sysbios_family_arm_lm4_Timer_Module__startupDone__S               
2001bc00  ti_sysbios_family_arm_lm4_Timer_Module__state__V                     
00012221  ti_sysbios_family_arm_lm4_Timer_Module_startup__E                    
2001b4f0  ti_sysbios_family_arm_lm4_Timer_Object__table__V                     
0002d79c  ti_sysbios_family_arm_lm4_Timer_enableFunc__C                        
0000ea99  ti_sysbios_family_arm_lm4_Timer_enableTimers__I                      
0000e941  ti_sysbios_family_arm_lm4_Timer_enableTiva__I                        
000172e9  ti_sysbios_family_arm_lm4_Timer_getMaxTicks__E                       
000174b9  ti_sysbios_family_arm_lm4_Timer_getPeriod__E                         
00012719  ti_sysbios_family_arm_lm4_Timer_isrStub__E                           
00017441  ti_sysbios_family_arm_lm4_Timer_masterDisable__I                     
0000e465  ti_sysbios_family_arm_lm4_Timer_masterEnable__I                      
0002d7a0  ti_sysbios_family_arm_lm4_Timer_numTimerDevices__C                   
000072b1  ti_sysbios_family_arm_lm4_Timer_start__E                             
0002d7a4  ti_sysbios_family_arm_lm4_Timer_startupNeeded__C                     
00014781  ti_sysbios_family_arm_lm4_Timer_startup__E                           
00014349  ti_sysbios_family_arm_lm4_Timer_stop__E                              
00016371  ti_sysbios_family_arm_lm4_Timer_write__I                             
2001bc9c  ti_sysbios_family_arm_lm4_TimestampProvider_Module__state__V         
00017489  ti_sysbios_family_arm_lm4_TimestampProvider_Module_startup__E        
0000cea9  ti_sysbios_family_arm_lm4_TimestampProvider_get32__E                 
00007dd1  ti_sysbios_family_arm_lm4_TimestampProvider_get64__E                 
00017099  ti_sysbios_family_arm_lm4_TimestampProvider_getFreq__E               
000170c9  ti_sysbios_family_arm_lm4_TimestampProvider_rolloverFunc__E          
000172f9  ti_sysbios_family_arm_lm4_TimestampProvider_startTimer__E            
0002da60  ti_sysbios_family_arm_lm4_TimestampProvider_useClockTimer__C         
0002d7a8  ti_sysbios_family_arm_m3_Hwi_E_NMI__C                                
0002d7ac  ti_sysbios_family_arm_m3_Hwi_E_alreadyDefined__C                     
0002d7b0  ti_sysbios_family_arm_m3_Hwi_E_busFault__C                           
0002d7b4  ti_sysbios_family_arm_m3_Hwi_E_debugMon__C                           
0002d7b8  ti_sysbios_family_arm_m3_Hwi_E_hardFault__C                          
0002d7bc  ti_sysbios_family_arm_m3_Hwi_E_memFault__C                           
0002d7c0  ti_sysbios_family_arm_m3_Hwi_E_noIsr__C                              
0002d7c4  ti_sysbios_family_arm_m3_Hwi_E_reserved__C                           
0002d7c8  ti_sysbios_family_arm_m3_Hwi_E_svCall__C                             
0002d7cc  ti_sysbios_family_arm_m3_Hwi_E_usageFault__C                         
000168d7  ti_sysbios_family_arm_m3_Hwi_Handle__label__S                        
2001b0d8  ti_sysbios_family_arm_m3_Hwi_Instance_State_0_hookEnv__A             
2001b0dc  ti_sysbios_family_arm_m3_Hwi_Instance_State_1_hookEnv__A             
2001b0e0  ti_sysbios_family_arm_m3_Hwi_Instance_State_2_hookEnv__A             
2001b0e4  ti_sysbios_family_arm_m3_Hwi_Instance_State_3_hookEnv__A             
00010d29  ti_sysbios_family_arm_m3_Hwi_Instance_finalize__E                    
0000d6e1  ti_sysbios_family_arm_m3_Hwi_Instance_init__E                        
0002d7d0  ti_sysbios_family_arm_m3_Hwi_LD_end__C                               
0002d7d4  ti_sysbios_family_arm_m3_Hwi_LM_begin__C                             
2001b7e6  ti_sysbios_family_arm_m3_Hwi_Module_State_0_excActive__A             
2001bd48  ti_sysbios_family_arm_m3_Hwi_Module_State_0_excContext__A            
2001bd4c  ti_sysbios_family_arm_m3_Hwi_Module_State_0_excStack__A              
0002d7d8  ti_sysbios_family_arm_m3_Hwi_Module__diagsEnabled__C                 
0002d7dc  ti_sysbios_family_arm_m3_Hwi_Module__diagsIncluded__C                
0002d7e0  ti_sysbios_family_arm_m3_Hwi_Module__diagsMask__C                    
0002da62  ti_sysbios_family_arm_m3_Hwi_Module__id__C                           
0002da64  ti_sysbios_family_arm_m3_Hwi_Module__loggerDefined__C                
0002d7e4  ti_sysbios_family_arm_m3_Hwi_Module__loggerFxn1__C                   
0002d7e8  ti_sysbios_family_arm_m3_Hwi_Module__loggerFxn8__C                   
0002d7ec  ti_sysbios_family_arm_m3_Hwi_Module__loggerObj__C                    
2001bca4  ti_sysbios_family_arm_m3_Hwi_Module__root__V                         
00016bd9  ti_sysbios_family_arm_m3_Hwi_Module__startupDone__F                  
00016bd9  ti_sysbios_family_arm_m3_Hwi_Module__startupDone__S                  
2001b958  ti_sysbios_family_arm_m3_Hwi_Module__state__V                        
000110d9  ti_sysbios_family_arm_m3_Hwi_Module_startup__E                       
0002d7f0  ti_sysbios_family_arm_m3_Hwi_NUM_INTERRUPTS__C                       
0002d4fc  ti_sysbios_family_arm_m3_Hwi_Object__DESC__C                         
0002d320  ti_sysbios_family_arm_m3_Hwi_Object__PARAMS__C                       
0002d7f4  ti_sysbios_family_arm_m3_Hwi_Object__count__C                        
00016475  ti_sysbios_family_arm_m3_Hwi_Object__delete__S                       
00016e9d  ti_sysbios_family_arm_m3_Hwi_Object__get__S                          
0002d7f8  ti_sysbios_family_arm_m3_Hwi_Object__heap__C                         
2001b6e8  ti_sysbios_family_arm_m3_Hwi_Object__table__V                        
00017305  ti_sysbios_family_arm_m3_Hwi_Params__init__S                         
0002d7fc  ti_sysbios_family_arm_m3_Hwi_ccr__C                                  
00012285  ti_sysbios_family_arm_m3_Hwi_create                                  
0000e51d  ti_sysbios_family_arm_m3_Hwi_delete                                  
00017311  ti_sysbios_family_arm_m3_Hwi_disableFxn__E                           
00013d89  ti_sysbios_family_arm_m3_Hwi_disableInterrupt__E                     
00007921  ti_sysbios_family_arm_m3_Hwi_dispatchC__I                            
20018400  ti_sysbios_family_arm_m3_Hwi_dispatchTable                           
0000c149  ti_sysbios_family_arm_m3_Hwi_dispatch__I                             
00017449  ti_sysbios_family_arm_m3_Hwi_doSwiRestore__I                         
00016231  ti_sysbios_family_arm_m3_Hwi_doTaskRestore__I                        
00013dd1  ti_sysbios_family_arm_m3_Hwi_enableInterrupt__E                      
000083b9  ti_sysbios_family_arm_m3_Hwi_excBusFault__I                          
0000df51  ti_sysbios_family_arm_m3_Hwi_excDebugMon__I                          
00003729  ti_sysbios_family_arm_m3_Hwi_excDumpRegs__I                          
00016495  ti_sysbios_family_arm_m3_Hwi_excHandlerAsm__I                        
0002d800  ti_sysbios_family_arm_m3_Hwi_excHandlerFunc__C                       
000065d1  ti_sysbios_family_arm_m3_Hwi_excHandlerMax__I                        
000164b9  ti_sysbios_family_arm_m3_Hwi_excHandler__I                           
0000e011  ti_sysbios_family_arm_m3_Hwi_excHardFault__I                         
0002d754  ti_sysbios_family_arm_m3_Hwi_excHookFuncs__A                         
0002d804  ti_sysbios_family_arm_m3_Hwi_excHookFuncs__C                         
00008ed9  ti_sysbios_family_arm_m3_Hwi_excMemFault__I                          
00015279  ti_sysbios_family_arm_m3_Hwi_excNmi__I                               
00014e81  ti_sysbios_family_arm_m3_Hwi_excNoIsr__I                             
00013e19  ti_sysbios_family_arm_m3_Hwi_excReserved__I                          
00014b51  ti_sysbios_family_arm_m3_Hwi_excSvCall__I                            
00008809  ti_sysbios_family_arm_m3_Hwi_excUsageFault__I                        
00014391  ti_sysbios_family_arm_m3_Hwi_getStackInfo__E                         
0002d6e0  ti_sysbios_family_arm_m3_Hwi_hooks__A                                
0002d75c  ti_sysbios_family_arm_m3_Hwi_hooks__C                                
0000f479  ti_sysbios_family_arm_m3_Hwi_initNVIC__E                             
00012fb1  ti_sysbios_family_arm_m3_Hwi_initStacks__E                           
0002d808  ti_sysbios_family_arm_m3_Hwi_nullIsrFunc__C                          
e000e000  ti_sysbios_family_arm_m3_Hwi_nvic                                    
00015f9f  ti_sysbios_family_arm_m3_Hwi_pendSV__I                               
0000cf81  ti_sysbios_family_arm_m3_Hwi_postInit__I                             
0002d80c  ti_sysbios_family_arm_m3_Hwi_priGroup__C                             
20000000  ti_sysbios_family_arm_m3_Hwi_ramVectors                              
00000000  ti_sysbios_family_arm_m3_Hwi_resetVectors                            
00017491  ti_sysbios_family_arm_m3_Hwi_restoreFxn__E                           
00015fc3  ti_sysbios_family_arm_m3_Hwi_return                                  
00017451  ti_sysbios_family_arm_m3_Hwi_startup__E                              
00016eb1  ti_sysbios_family_arm_m3_Hwi_switchFromBootStack__E                  
0000e685  ti_sysbios_family_arm_m3_TaskSupport_Module__startupDone__S          
0000faa1  ti_sysbios_family_arm_m3_TaskSupport_buildTaskStack                  
00017321  ti_sysbios_family_arm_m3_TaskSupport_checkStack__E                   
00017331  ti_sysbios_family_arm_m3_TaskSupport_getStackAlignment__E            
000170d9  ti_sysbios_family_arm_m3_TaskSupport_glue                            
0002d810  ti_sysbios_family_arm_m3_TaskSupport_stackAlignment__C               
00015769  ti_sysbios_family_arm_m3_TaskSupport_start__E                        
00016bf1  ti_sysbios_family_arm_m3_TaskSupport_swap__E                         
0001668f  ti_sysbios_family_xxx_Hwi_switchAndRunFunc                           
000168f1  ti_sysbios_gates_GateHwi_Handle__label__S                            
000174d9  ti_sysbios_gates_GateHwi_Instance_init__E                            
0002d448  ti_sysbios_gates_GateHwi_Module__FXNS__C                             
2001bcac  ti_sysbios_gates_GateHwi_Module__root__V                             
0002d51c  ti_sysbios_gates_GateHwi_Object__DESC__C                             
0002d66c  ti_sysbios_gates_GateHwi_Object__PARAMS__C                           
00015799  ti_sysbios_gates_GateHwi_Object__create__S                           
000164d9  ti_sysbios_gates_GateHwi_Object__delete__S                           
2001bd50  ti_sysbios_gates_GateHwi_Object__table__V                            
00017341  ti_sysbios_gates_GateHwi_enter__E                                    
00017499  ti_sysbios_gates_GateHwi_leave__E                                    
000174c1  ti_sysbios_gates_GateHwi_query__E                                    
0002d814  ti_sysbios_gates_GateMutex_A_badContext__C                           
0001690b  ti_sysbios_gates_GateMutex_Handle__label__S                          
0002d818  ti_sysbios_gates_GateMutex_Instance_State_sem__O                     
000170e9  ti_sysbios_gates_GateMutex_Instance_finalize__E                      
000167a9  ti_sysbios_gates_GateMutex_Instance_init__E                          
0002d46c  ti_sysbios_gates_GateMutex_Module__FXNS__C                           
0002d81c  ti_sysbios_gates_GateMutex_Module__diagsEnabled__C                   
0002d820  ti_sysbios_gates_GateMutex_Module__diagsIncluded__C                  
0002d824  ti_sysbios_gates_GateMutex_Module__diagsMask__C                      
0002da66  ti_sysbios_gates_GateMutex_Module__id__C                             
2001bcb4  ti_sysbios_gates_GateMutex_Module__root__V                           
0002d53c  ti_sysbios_gates_GateMutex_Object__DESC__C                           
0002d684  ti_sysbios_gates_GateMutex_Object__PARAMS__C                         
000157c9  ti_sysbios_gates_GateMutex_Object__create__S                         
00016255  ti_sysbios_gates_GateMutex_Object__delete__S                         
2001b8ec  ti_sysbios_gates_GateMutex_Object__table__V                          
0000e469  ti_sysbios_gates_GateMutex_enter__E                                  
00016c09  ti_sysbios_gates_GateMutex_leave__E                                  
000174c9  ti_sysbios_gates_GateMutex_query__E                                  
0002d828  ti_sysbios_hal_Hwi_E_stackOverflow__C                                
000168d7  ti_sysbios_hal_Hwi_HwiProxy_Handle__label__S                         
00016bd9  ti_sysbios_hal_Hwi_HwiProxy_Module__startupDone__S                   
00016475  ti_sysbios_hal_Hwi_HwiProxy_Object__delete__S                        
00017305  ti_sysbios_hal_Hwi_HwiProxy_Params__init__S                          
00013d89  ti_sysbios_hal_Hwi_HwiProxy_disableInterrupt__E                      
00017311  ti_sysbios_hal_Hwi_HwiProxy_disable__E                               
00013dd1  ti_sysbios_hal_Hwi_HwiProxy_enableInterrupt__E                       
00014391  ti_sysbios_hal_Hwi_HwiProxy_getStackInfo__E                          
00017491  ti_sysbios_hal_Hwi_HwiProxy_restore__E                               
00017451  ti_sysbios_hal_Hwi_HwiProxy_startup__E                               
00016eb1  ti_sysbios_hal_Hwi_HwiProxy_switchFromBootStack__E                   
0002da68  ti_sysbios_hal_Hwi_Module__id__C                                     
00016fa9  ti_sysbios_hal_Hwi_Module_startup__E                                 
000152b1  ti_sysbios_hal_Hwi_checkStack                                        
00015579  ti_sysbios_hal_Hwi_initStack                                         
0002d82c  ti_sysbios_heaps_HeapMem_A_align__C                                  
0002d830  ti_sysbios_heaps_HeapMem_A_heapSize__C                               
0002d834  ti_sysbios_heaps_HeapMem_A_invalidFree__C                            
0002d838  ti_sysbios_heaps_HeapMem_A_zeroBlock__C                              
0002d83c  ti_sysbios_heaps_HeapMem_E_memory__C                                 
00016925  ti_sysbios_heaps_HeapMem_Handle__label__S                            
20000400  ti_sysbios_heaps_HeapMem_Instance_State_0_buf__A                     
000098d9  ti_sysbios_heaps_HeapMem_Instance_init__E                            
0001690b  ti_sysbios_heaps_HeapMem_Module_GateProxy_Handle__label__S           
00016255  ti_sysbios_heaps_HeapMem_Module_GateProxy_Object__delete__S          
0000ea95  ti_sysbios_heaps_HeapMem_Module_GateProxy_enter__E                   
0000f0dd  ti_sysbios_heaps_HeapMem_Module_GateProxy_leave__E                   
000174c9  ti_sysbios_heaps_HeapMem_Module_GateProxy_query__E                   
0002d3a8  ti_sysbios_heaps_HeapMem_Module__FXNS__C                             
0002d840  ti_sysbios_heaps_HeapMem_Module__diagsEnabled__C                     
0002d844  ti_sysbios_heaps_HeapMem_Module__diagsIncluded__C                    
0002d848  ti_sysbios_heaps_HeapMem_Module__diagsMask__C                        
0002d84c  ti_sysbios_heaps_HeapMem_Module__gateObj__C                          
0002da6a  ti_sysbios_heaps_HeapMem_Module__id__C                               
2001bcbc  ti_sysbios_heaps_HeapMem_Module__root__V                             
0002d55c  ti_sysbios_heaps_HeapMem_Object__DESC__C                             
0002d490  ti_sysbios_heaps_HeapMem_Object__PARAMS__C                           
0002d850  ti_sysbios_heaps_HeapMem_Object__count__C                            
000157f9  ti_sysbios_heaps_HeapMem_Object__create__S                           
000164f9  ti_sysbios_heaps_HeapMem_Object__delete__S                           
00016ec5  ti_sysbios_heaps_HeapMem_Object__get__S                              
2001bbb8  ti_sysbios_heaps_HeapMem_Object__table__V                            
00005909  ti_sysbios_heaps_HeapMem_alloc__E                                    
00005469  ti_sysbios_heaps_HeapMem_free__E                                     
00013859  ti_sysbios_heaps_HeapMem_getStats__E                                 
00014b91  ti_sysbios_heaps_HeapMem_init__I                                     
000174a1  ti_sysbios_heaps_HeapMem_isBlocking__E                               
0002d854  ti_sysbios_heaps_HeapMem_reqAlign__C                                 
0002d858  ti_sysbios_knl_Clock_A_badThreadType__C                              
0000a381  ti_sysbios_knl_Clock_Instance_init__E                                
0002d85c  ti_sysbios_knl_Clock_LM_begin__C                                     
0002d860  ti_sysbios_knl_Clock_LM_tick__C                                      
0002d864  ti_sysbios_knl_Clock_LW_delayed__C                                   
0002d868  ti_sysbios_knl_Clock_Module_State_clockQ__O                          
0002d86c  ti_sysbios_knl_Clock_Module__diagsEnabled__C                         
0002d870  ti_sysbios_knl_Clock_Module__diagsIncluded__C                        
0002d874  ti_sysbios_knl_Clock_Module__diagsMask__C                            
0002da6c  ti_sysbios_knl_Clock_Module__id__C                                   
0002da6e  ti_sysbios_knl_Clock_Module__loggerDefined__C                        
0002d878  ti_sysbios_knl_Clock_Module__loggerFxn1__C                           
0002d87c  ti_sysbios_knl_Clock_Module__loggerFxn2__C                           
0002d880  ti_sysbios_knl_Clock_Module__loggerObj__C                            
2001bcc4  ti_sysbios_knl_Clock_Module__root__V                                 
2001ba20  ti_sysbios_knl_Clock_Module__state__V                                
00016279  ti_sysbios_knl_Clock_Module_startup__E                               
0002d57c  ti_sysbios_knl_Clock_Object__DESC__C                                 
0002d4b4  ti_sysbios_knl_Clock_Object__PARAMS__C                               
0001734d  ti_sysbios_knl_Clock_Params__init__S                                 
00016bc1  ti_sysbios_knl_Clock_TimerProxy_Module__startupDone__S               
0000f475  ti_sysbios_knl_Clock_TimerProxy_getMaxTicks__E                       
0000f6bd  ti_sysbios_knl_Clock_TimerProxy_getPeriod__E                         
00014781  ti_sysbios_knl_Clock_TimerProxy_startup__E                           
00014eb9  ti_sysbios_knl_Clock_create                                          
00015afd  ti_sysbios_knl_Clock_doTick__I                                       
00017359  ti_sysbios_knl_Clock_getTicks__E                                     
00012779  ti_sysbios_knl_Clock_logTick__E                                      
00011151  ti_sysbios_knl_Clock_start__E                                        
00009c81  ti_sysbios_knl_Clock_workFunc__E                                     
0002d72c  ti_sysbios_knl_Idle_funcList__A                                      
0002d764  ti_sysbios_knl_Idle_funcList__C                                      
00017211  ti_sysbios_knl_Idle_loop__E                                          
00016519  ti_sysbios_knl_Idle_run__E                                           
000174a9  ti_sysbios_knl_Queue_Instance_init__E                                
2001bccc  ti_sysbios_knl_Queue_Module__root__V                                 
0002d59c  ti_sysbios_knl_Queue_Object__DESC__C                                 
0002d69c  ti_sysbios_knl_Queue_Object__PARAMS__C                               
000167c5  ti_sysbios_knl_Queue_Object__destruct__S                             
00017365  ti_sysbios_knl_Queue_Object__get__S                                  
00015b29  ti_sysbios_knl_Queue_construct                                       
0000fb2d  ti_sysbios_knl_Queue_destruct                                        
00017221  ti_sysbios_knl_Queue_empty__E                                        
0002d884  ti_sysbios_knl_Semaphore_A_badContext__C                             
0002d888  ti_sysbios_knl_Semaphore_A_noEvents__C                               
0002d88c  ti_sysbios_knl_Semaphore_A_overflow__C                               
0002d890  ti_sysbios_knl_Semaphore_A_pendTaskDisabled__C                       
0002d894  ti_sysbios_knl_Semaphore_Instance_State_pendQ__O                     
000170f9  ti_sysbios_knl_Semaphore_Instance_finalize__E                        
0000f0e1  ti_sysbios_knl_Semaphore_Instance_init__E                            
0002d898  ti_sysbios_knl_Semaphore_LM_pend__C                                  
0002d89c  ti_sysbios_knl_Semaphore_LM_post__C                                  
0002d8a0  ti_sysbios_knl_Semaphore_Module__diagsEnabled__C                     
0002d8a4  ti_sysbios_knl_Semaphore_Module__diagsIncluded__C                    
0002d8a8  ti_sysbios_knl_Semaphore_Module__diagsMask__C                        
0002da70  ti_sysbios_knl_Semaphore_Module__id__C                               
0002da72  ti_sysbios_knl_Semaphore_Module__loggerDefined__C                    
0002d8ac  ti_sysbios_knl_Semaphore_Module__loggerFxn2__C                       
0002d8b0  ti_sysbios_knl_Semaphore_Module__loggerFxn4__C                       
0002d8b4  ti_sysbios_knl_Semaphore_Module__loggerObj__C                        
2001bcd4  ti_sysbios_knl_Semaphore_Module__root__V                             
0002d5bc  ti_sysbios_knl_Semaphore_Object__DESC__C                             
0002d4d8  ti_sysbios_knl_Semaphore_Object__PARAMS__C                           
0001629d  ti_sysbios_knl_Semaphore_Object__delete__S                           
00016539  ti_sysbios_knl_Semaphore_Object__destruct__S                         
2001b670  ti_sysbios_knl_Semaphore_Object__table__V                            
00017371  ti_sysbios_knl_Semaphore_Params__init__S                             
00015829  ti_sysbios_knl_Semaphore_construct                                   
000152e5  ti_sysbios_knl_Semaphore_create                                      
000110d5  ti_sysbios_knl_Semaphore_delete                                      
0001114d  ti_sysbios_knl_Semaphore_destruct                                    
000155b1  ti_sysbios_knl_Semaphore_pendTimeout__I                              
00004959  ti_sysbios_knl_Semaphore_pend__E                                     
000092a9  ti_sysbios_knl_Semaphore_post__E                                     
00016fc1  ti_sysbios_knl_Semaphore_reset__E                                    
0002d8b8  ti_sysbios_knl_Swi_A_badPriority__C                                  
0001693f  ti_sysbios_knl_Swi_Handle__label__S                                  
2001b0e8  ti_sysbios_knl_Swi_Instance_State_0_hookEnv__A                       
0000ed29  ti_sysbios_knl_Swi_Instance_finalize__E                              
0000b269  ti_sysbios_knl_Swi_Instance_init__E                                  
0002d8bc  ti_sysbios_knl_Swi_LD_end__C                                         
0002d8c0  ti_sysbios_knl_Swi_LM_begin__C                                       
0002d8c4  ti_sysbios_knl_Swi_LM_post__C                                        
2001b570  ti_sysbios_knl_Swi_Module_State_0_readyQ__A                          
0002d8c8  ti_sysbios_knl_Swi_Module__diagsEnabled__C                           
0002d8cc  ti_sysbios_knl_Swi_Module__diagsIncluded__C                          
0002d8d0  ti_sysbios_knl_Swi_Module__diagsMask__C                              
0002da74  ti_sysbios_knl_Swi_Module__id__C                                     
0002da76  ti_sysbios_knl_Swi_Module__loggerDefined__C                          
0002d8d4  ti_sysbios_knl_Swi_Module__loggerFxn1__C                             
0002d8d8  ti_sysbios_knl_Swi_Module__loggerFxn4__C                             
0002d8dc  ti_sysbios_knl_Swi_Module__loggerObj__C                              
2001bcdc  ti_sysbios_knl_Swi_Module__root__V                                   
2001bb54  ti_sysbios_knl_Swi_Module__state__V                                  
0000b371  ti_sysbios_knl_Swi_Module_startup__E                                 
0002d5dc  ti_sysbios_knl_Swi_Object__DESC__C                                   
0002d3d0  ti_sysbios_knl_Swi_Object__PARAMS__C                                 
0002d8e0  ti_sysbios_knl_Swi_Object__count__C                                  
00016559  ti_sysbios_knl_Swi_Object__delete__S                                 
00016ed9  ti_sysbios_knl_Swi_Object__get__S                                    
0002d8e4  ti_sysbios_knl_Swi_Object__heap__C                                   
2001b9f0  ti_sysbios_knl_Swi_Object__table__V                                  
00012a69  ti_sysbios_knl_Swi_create                                            
00011995  ti_sysbios_knl_Swi_delete                                            
00017109  ti_sysbios_knl_Swi_disable__E                                        
0002d6b4  ti_sysbios_knl_Swi_hooks__A                                          
0002d76c  ti_sysbios_knl_Swi_hooks__C                                          
0002d8e8  ti_sysbios_knl_Swi_numConstructedSwis__C                             
00013009  ti_sysbios_knl_Swi_postInit__I                                       
0000d059  ti_sysbios_knl_Swi_post__E                                           
00011999  ti_sysbios_knl_Swi_restoreHwi__E                                     
000138a9  ti_sysbios_knl_Swi_runLoop__I                                        
000080c9  ti_sysbios_knl_Swi_run__I                                            
00012ac9  ti_sysbios_knl_Swi_schedule__I                                       
00014bd1  ti_sysbios_knl_Swi_startup__E                                        
0002d8ec  ti_sysbios_knl_Task_A_badPriority__C                                 
0002d8f0  ti_sysbios_knl_Task_A_badTaskState__C                                
0002d8f4  ti_sysbios_knl_Task_A_badThreadType__C                               
0002d8f8  ti_sysbios_knl_Task_A_badTimeout__C                                  
0002d8fc  ti_sysbios_knl_Task_A_noPendElem__C                                  
0002d900  ti_sysbios_knl_Task_A_sleepTaskDisabled__C                           
0002d904  ti_sysbios_knl_Task_E_deleteNotAllowed__C                            
0002d908  ti_sysbios_knl_Task_E_spOutOfBounds__C                               
0002d90c  ti_sysbios_knl_Task_E_stackOverflow__C                               
00016959  ti_sysbios_knl_Task_Handle__label__S                                 
2001b064  ti_sysbios_knl_Task_Instance_State_0_hookEnv__A                      
2000f000  ti_sysbios_knl_Task_Instance_State_0_stack__A                        
2001b06c  ti_sysbios_knl_Task_Instance_State_1_hookEnv__A                      
2000f200  ti_sysbios_knl_Task_Instance_State_1_stack__A                        
2001b074  ti_sysbios_knl_Task_Instance_State_2_hookEnv__A                      
2000f400  ti_sysbios_knl_Task_Instance_State_2_stack__A                        
2001b07c  ti_sysbios_knl_Task_Instance_State_3_hookEnv__A                      
2000f800  ti_sysbios_knl_Task_Instance_State_3_stack__A                        
2001b084  ti_sysbios_knl_Task_Instance_State_4_hookEnv__A                      
2000fe00  ti_sysbios_knl_Task_Instance_State_4_stack__A                        
00004f21  ti_sysbios_knl_Task_Instance_finalize__E                             
000069c1  ti_sysbios_knl_Task_Instance_init__E                                 
0002d910  ti_sysbios_knl_Task_LD_block__C                                      
0002d914  ti_sysbios_knl_Task_LD_exit__C                                       
0002d918  ti_sysbios_knl_Task_LD_ready__C                                      
0002d91c  ti_sysbios_knl_Task_LM_setPri__C                                     
0002d920  ti_sysbios_knl_Task_LM_sleep__C                                      
0002d924  ti_sysbios_knl_Task_LM_switch__C                                     
2001bd54  ti_sysbios_knl_Task_Module_State_0_idleTask__A                       
2001b5f0  ti_sysbios_knl_Task_Module_State_0_readyQ__A                         
0002d928  ti_sysbios_knl_Task_Module_State_inactiveQ__O                        
0002d92c  ti_sysbios_knl_Task_Module_State_terminatedQ__O                      
0002d930  ti_sysbios_knl_Task_Module__diagsEnabled__C                          
0002d934  ti_sysbios_knl_Task_Module__diagsIncluded__C                         
0002d938  ti_sysbios_knl_Task_Module__diagsMask__C                             
0002da78  ti_sysbios_knl_Task_Module__id__C                                    
0002da7a  ti_sysbios_knl_Task_Module__loggerDefined__C                         
0002d93c  ti_sysbios_knl_Task_Module__loggerFxn2__C                            
0002d940  ti_sysbios_knl_Task_Module__loggerFxn4__C                            
0002d944  ti_sysbios_knl_Task_Module__loggerObj__C                             
2001bc0c  ti_sysbios_knl_Task_Module__root__V                                  
2001b7e8  ti_sysbios_knl_Task_Module__state__V                                 
0000f6c1  ti_sysbios_knl_Task_Module_startup__E                                
0002d5fc  ti_sysbios_knl_Task_Object__DESC__C                                  
0002d250  ti_sysbios_knl_Task_Object__PARAMS__C                                
0002d948  ti_sysbios_knl_Task_Object__count__C                                 
00016579  ti_sysbios_knl_Task_Object__delete__S                                
00016eed  ti_sysbios_knl_Task_Object__first__S                                 
00016f01  ti_sysbios_knl_Task_Object__get__S                                   
0002d94c  ti_sysbios_knl_Task_Object__heap__C                                  
00016f15  ti_sysbios_knl_Task_Object__next__S                                  
2001b0ec  ti_sysbios_knl_Task_Object__table__V                                 
0001737d  ti_sysbios_knl_Task_Params__init__S                                  
0000e685  ti_sysbios_knl_Task_SupportProxy_Module__startupDone__S              
00017321  ti_sysbios_knl_Task_SupportProxy_checkStack__E                       
00017331  ti_sysbios_knl_Task_SupportProxy_getStackAlignment__E                
00015769  ti_sysbios_knl_Task_SupportProxy_start__E                            
00016bf1  ti_sysbios_knl_Task_SupportProxy_swap__E                             
0002d950  ti_sysbios_knl_Task_allBlockedFunc__C                                
000138f9  ti_sysbios_knl_Task_allBlockedFunction__I                            
0000eb41  ti_sysbios_knl_Task_blockI__E                                        
0000e521  ti_sysbios_knl_Task_checkStacks__E                                   
00012b25  ti_sysbios_knl_Task_create                                           
0002d954  ti_sysbios_knl_Task_defaultStackHeap__C                              
0002d958  ti_sysbios_knl_Task_defaultStackSize__C                              
00011a05  ti_sysbios_knl_Task_delete                                           
00013e61  ti_sysbios_knl_Task_deleteTerminatedTasksFunc__I                     
00017119  ti_sysbios_knl_Task_disable__E                                       
000167e1  ti_sysbios_knl_Task_enter__I                                         
0000b059  ti_sysbios_knl_Task_exit__E                                          
00017459  ti_sysbios_knl_Task_getHookContext__E                                
00017389  ti_sysbios_knl_Task_getIdleTask__E                                   
0002d350  ti_sysbios_knl_Task_hooks__A                                         
0002d774  ti_sysbios_knl_Task_hooks__C                                         
0002d95c  ti_sysbios_knl_Task_numConstructedTasks__C                           
0000bb71  ti_sysbios_knl_Task_postInit__I                                      
00014ef1  ti_sysbios_knl_Task_processVitalTaskFlag__I                          
00015b59  ti_sysbios_knl_Task_restore__E                                       
0000ab19  ti_sysbios_knl_Task_schedule__I                                      
00017399  ti_sysbios_knl_Task_self__E                                          
00017461  ti_sysbios_knl_Task_setHookContext__E                                
00007c49  ti_sysbios_knl_Task_setPri__E                                        
00016979  ti_sysbios_knl_Task_sleepTimeout__I                                  
000063d1  ti_sysbios_knl_Task_sleep__E                                         
0000bc71  ti_sysbios_knl_Task_startCore__E                                     
000174d1  ti_sysbios_knl_Task_startup__E                                       
00016bfd  ti_sysbios_knl_Task_swapReturn                                       
0000e2f9  ti_sysbios_knl_Task_unblockI__E                                      
0002d960  ti_sysbios_utils_Load_LS_cpuLoad__C                                  
0002d964  ti_sysbios_utils_Load_LS_hwiLoad__C                                  
0002d968  ti_sysbios_utils_Load_LS_swiLoad__C                                  
0002d96c  ti_sysbios_utils_Load_LS_taskLoad__C                                 
2001bd58  ti_sysbios_utils_Load_Module_State_0_runningTask__A                  
2001b464  ti_sysbios_utils_Load_Module_State_0_taskEnv__A                      
2001bd5c  ti_sysbios_utils_Load_Module_State_0_taskStartTime__A                
0002d970  ti_sysbios_utils_Load_Module_State_taskList__O                       
0002d974  ti_sysbios_utils_Load_Module__diagsEnabled__C                        
0002d978  ti_sysbios_utils_Load_Module__diagsIncluded__C                       
0002d97c  ti_sysbios_utils_Load_Module__diagsMask__C                           
0002da7c  ti_sysbios_utils_Load_Module__id__C                                  
0002da7e  ti_sysbios_utils_Load_Module__loggerDefined__C                       
0002d980  ti_sysbios_utils_Load_Module__loggerFxn1__C                          
0002d984  ti_sysbios_utils_Load_Module__loggerFxn2__C                          
0002d988  ti_sysbios_utils_Load_Module__loggerFxn4__C                          
0002d98c  ti_sysbios_utils_Load_Module__loggerObj__C                           
2001b3cc  ti_sysbios_utils_Load_Module__state__V                               
00011ef9  ti_sysbios_utils_Load_addTask__E                                     
0002da80  ti_sysbios_utils_Load_autoAddTasks__C                                
000132b1  ti_sysbios_utils_Load_hwiBeginHook__E                                
00014c11  ti_sysbios_utils_Load_hwiEndHook__E                                  
0000e689  ti_sysbios_utils_Load_idleFxn__E                                     
000127d9  ti_sysbios_utils_Load_logCPULoad__I                                  
00008ad1  ti_sysbios_utils_Load_logLoads__I                                    
0002d990  ti_sysbios_utils_Load_postUpdate__C                                  
000143d9  ti_sysbios_utils_Load_removeTask__E                                  
0000f751  ti_sysbios_utils_Load_startup__E                                     
00014421  ti_sysbios_utils_Load_swiBeginHook__E                                
00015319  ti_sysbios_utils_Load_swiEndHook__E                                  
00011a09  ti_sysbios_utils_Load_taskCreateHook__E                              
00013ea9  ti_sysbios_utils_Load_taskDeleteHook__E                              
000173a9  ti_sysbios_utils_Load_taskRegHook__E                                 
00013309  ti_sysbios_utils_Load_taskSwitchHook__E                              
0000fb31  ti_sysbios_utils_Load_updateCurrentThreadTime__E                     
0002da82  ti_sysbios_utils_Load_updateInIdle__C                                
0000e739  ti_sysbios_utils_Load_updateLoads__E                                 
0000a7e1  ti_sysbios_utils_Load_updateThreadContexts__E                        
0000e739  ti_sysbios_utils_Load_update__E                                      
0002d994  ti_sysbios_utils_Load_windowInMs__C                                  
00016993  ti_uia_loggers_LoggerStopMode_Handle__label__S                       
2001ae80  ti_uia_loggers_LoggerStopMode_Instance_State_0_hdr__A                
20013000  ti_uia_loggers_LoggerStopMode_Instance_State_0_packetArray__A        
2001af00  ti_uia_loggers_LoggerStopMode_Instance_State_1_hdr__A                
20017800  ti_uia_loggers_LoggerStopMode_Instance_State_1_packetArray__A        
2001af80  ti_uia_loggers_LoggerStopMode_Instance_State_2_hdr__A                
2000dc00  ti_uia_loggers_LoggerStopMode_Instance_State_2_packetArray__A        
000167fd  ti_uia_loggers_LoggerStopMode_Instance_init__E                       
0002d07c  ti_uia_loggers_LoggerStopMode_Module__FXNS__C                        
0002d998  ti_uia_loggers_LoggerStopMode_Module__diagsEnabled__C                
0002d99c  ti_uia_loggers_LoggerStopMode_Module__diagsIncluded__C               
0002d9a0  ti_uia_loggers_LoggerStopMode_Module__diagsMask__C                   
0002da84  ti_uia_loggers_LoggerStopMode_Module__id__C                          
2001bce4  ti_uia_loggers_LoggerStopMode_Module__root__V                        
00013945  ti_uia_loggers_LoggerStopMode_Module_startup__E                      
0002d61c  ti_uia_loggers_LoggerStopMode_Object__DESC__C                        
0002d3f8  ti_uia_loggers_LoggerStopMode_Object__PARAMS__C                      
0002d9a4  ti_uia_loggers_LoggerStopMode_Object__count__C                       
00015859  ti_uia_loggers_LoggerStopMode_Object__create__S                      
00016599  ti_uia_loggers_LoggerStopMode_Object__delete__S                      
00017129  ti_uia_loggers_LoggerStopMode_Object__get__S                         
2001b330  ti_uia_loggers_LoggerStopMode_Object__table__V                       
00016d1b  ti_uia_loggers_LoggerStopMode_disable__E                             
00016d31  ti_uia_loggers_LoggerStopMode_enable__E                              
00011f61  ti_uia_loggers_LoggerStopMode_flush__E                               
00012715  ti_uia_loggers_LoggerStopMode_getContents__E                         
00012ac5  ti_uia_loggers_LoggerStopMode_getFilterLevel__E                      
00013305  ti_uia_loggers_LoggerStopMode_getInstanceId__E                       
00013855  ti_uia_loggers_LoggerStopMode_getMaxLength__E                        
000138a5  ti_uia_loggers_LoggerStopMode_getPriority__E                         
000138f5  ti_uia_loggers_LoggerStopMode_getTransferType__E                     
00014465  ti_uia_loggers_LoggerStopMode_initBuffer__I                          
0000f7e1  ti_uia_loggers_LoggerStopMode_initQueueDescriptor__E                 
00017139  ti_uia_loggers_LoggerStopMode_isEmpty__E                             
0002da86  ti_uia_loggers_LoggerStopMode_isTimestampEnabled__C                  
0001534d  ti_uia_loggers_LoggerStopMode_reset__E                               
0001138b  ti_uia_loggers_LoggerStopMode_setFilterLevel__E                      
000115bb  ti_uia_loggers_LoggerStopMode_setPriority__E                         
0000cc1d  ti_uia_loggers_LoggerStopMode_write0__E                              
0000c7c5  ti_uia_loggers_LoggerStopMode_write1__E                              
0000c5f9  ti_uia_loggers_LoggerStopMode_write2__E                              
0000c23d  ti_uia_loggers_LoggerStopMode_write4__E                              
0000ad35  ti_uia_loggers_LoggerStopMode_write8__E                              
00009a15  ti_uia_loggers_LoggerStopMode_writeMemoryRange__E                    
0002d9a8  ti_uia_runtime_ILoggerSnapshot_Interface__BASE__C                    
0002d9ac  ti_uia_runtime_IUIATransfer_Interface__BASE__C                       
2001bc18  ti_uia_runtime_QueueDescriptor_Module__state__V                      
000111c5  ti_uia_runtime_QueueDescriptor_addToList__E                          
2001bc94  ti_uia_runtime_QueueDescriptor_gPtrToFirstDescriptor                 
2001bc98  ti_uia_runtime_QueueDescriptor_gUpdateCount                          
2001ae74  tpseudo                                                              
00021614  twiddleCoef_1024                                                     
0002b1e4  twiddleCoef_128                                                      
0002cd64  twiddleCoef_16                                                       
000174dc  twiddleCoef_2048                                                     
0002a1e4  twiddleCoef_256                                                      
0002cad4  twiddleCoef_32                                                       
000273d4  twiddleCoef_512                                                      
0002c0d4  twiddleCoef_64                                                       
000283d4  twiddleCoef_rfft_1024                                                
0002c2d4  twiddleCoef_rfft_128                                                 
00023614  twiddleCoef_rfft_2048                                                
0002b5e4  twiddleCoef_rfft_256                                                 
0002cde4  twiddleCoef_rfft_32                                                  
0001b4dc  twiddleCoef_rfft_4096                                                
0002a9e4  twiddleCoef_rfft_512                                                 
0002cbd4  twiddleCoef_rfft_64                                                  
00015b85  uDMAChannelAssign                                                    
00013ef1  uDMAChannelAttributeDisable                                          
00013f39  uDMAChannelAttributeEnable                                           
000162c1  uDMAChannelControlSet                                                
00016c21  uDMAChannelEnable                                                    
00015eb9  uDMAChannelModeGet                                                   
00010075  uDMAChannelTransferSet                                               
000173b5  uDMAControlBaseSet                                                   
00017149  uDMAEnable                                                           
2001b790  uDMATransferCount                                                    
2001b794  uDMATransferCount2                                                   
20010000  udmaCtrlTable                                                        
2001af30  udps                                                                 
2001b748  ui32Ignore                                                           
2001b050  upseudo                                                              
2001aeb0  vlan_mcb                                                             
20017c00  wave1                                                                
20018000  wave2                                                                
0002d9b0  xdc_runtime_Assert_E_assertFailed__C                                 
0001335d  xdc_runtime_Assert_raise__I                                          
0002d9b4  xdc_runtime_Core_A_initializedParams__C                              
0002d9b8  xdc_runtime_Core_Module__diagsEnabled__C                             
0002d9bc  xdc_runtime_Core_Module__diagsIncluded__C                            
0002d9c0  xdc_runtime_Core_Module__diagsMask__C                                
0002da88  xdc_runtime_Core_Module__id__C                                       
00015381  xdc_runtime_Core_assignLabel__I                                      
00014099  xdc_runtime_Core_assignParams__I                                     
0000d7ad  xdc_runtime_Core_constructObject__I                                  
0000b879  xdc_runtime_Core_createObject__I                                     
00011fc7  xdc_runtime_Core_deleteObject__I                                     
0002d9c4  xdc_runtime_Error_E_memory__C                                        
0002d9c8  xdc_runtime_Error_Module__diagsEnabled__C                            
0002d9cc  xdc_runtime_Error_Module__diagsIncluded__C                           
0002d9d0  xdc_runtime_Error_Module__diagsMask__C                               
0002da8a  xdc_runtime_Error_Module__loggerDefined__C                           
0002d9d4  xdc_runtime_Error_Module__loggerFxn8__C                              
0002d9d8  xdc_runtime_Error_Module__loggerObj__C                               
2001b9be  xdc_runtime_Error_Module__state__V                                   
00016c39  xdc_runtime_Error_check__E                                           
00014345  xdc_runtime_Error_getMsg__E                                          
0001438d  xdc_runtime_Error_getSite__E                                         
000173c1  xdc_runtime_Error_init__E                                            
0002da8c  xdc_runtime_Error_maxDepth__C                                        
0000a5b5  xdc_runtime_Error_policyDefault__E                                   
0002d9dc  xdc_runtime_Error_policyFxn__C                                       
0002d2bf  xdc_runtime_Error_policy__C                                          
00011a75  xdc_runtime_Error_print__E                                           
0002d9e0  xdc_runtime_Error_raiseHook__C                                       
00016819  xdc_runtime_Error_raiseX__E                                          
000144a9  xdc_runtime_Error_setX__E                                            
000173cd  xdc_runtime_Gate_enterSystem__E                                      
00017159  xdc_runtime_Gate_leaveSystem__E                                      
0002d9e4  xdc_runtime_IFilterLogger_Interface__BASE__C                         
0002d9e8  xdc_runtime_IGateProvider_Interface__BASE__C                         
0002d9ec  xdc_runtime_IHeap_Interface__BASE__C                                 
0002d9f0  xdc_runtime_ILogger_Interface__BASE__C                               
0002d9f4  xdc_runtime_IModule_Interface__BASE__C                               
0002d9f8  xdc_runtime_Log_L_error__C                                           
0002d9fc  xdc_runtime_Log_L_info__C                                            
000168f1  xdc_runtime_Main_Module_GateProxy_Handle__label__S                   
000164d9  xdc_runtime_Main_Module_GateProxy_Object__delete__S                  
000174c1  xdc_runtime_Main_Module_GateProxy_query__E                           
0002da00  xdc_runtime_Main_Module__diagsEnabled__C                             
0002da04  xdc_runtime_Main_Module__diagsIncluded__C                            
0002da08  xdc_runtime_Main_Module__diagsMask__C                                
0002da8e  xdc_runtime_Main_Module__id__C                                       
0002da90  xdc_runtime_Main_Module__loggerDefined__C                            
0002da0c  xdc_runtime_Main_Module__loggerFxn4__C                               
0002da10  xdc_runtime_Main_Module__loggerObj__C                                
2001bd1e  xdc_runtime_Main_Module__root__V                                     
00016925  xdc_runtime_Memory_HeapProxy_Handle__label__S                        
000164f9  xdc_runtime_Memory_HeapProxy_Object__delete__S                       
00017405  xdc_runtime_Memory_HeapProxy_alloc__E                                
0001740f  xdc_runtime_Memory_HeapProxy_free__E                                 
0002da92  xdc_runtime_Memory_Module__id__C                                     
2001bd60  xdc_runtime_Memory_Module__state__V                                  
00011ae1  xdc_runtime_Memory_alloc__E                                          
000173d9  xdc_runtime_Memory_calloc__E                                         
0002da14  xdc_runtime_Memory_defaultHeapInstance__C                            
00017169  xdc_runtime_Memory_free__E                                           
000173e5  xdc_runtime_Memory_getMaxDefaultTypeAlign__E                         
00016835  xdc_runtime_Memory_valloc__E                                         
2001bcec  xdc_runtime_Registry_Module__state__V                                
000165b9  xdc_runtime_Registry_findById__E                                     
2001bcf4  xdc_runtime_Startup_Module__state__V                                 
00000001  xdc_runtime_Startup__EXECFXN__C                                      
00000001  xdc_runtime_Startup__RESETFXN__C                                     
0002da18  xdc_runtime_Startup_execImpl__C                                      
00013635  xdc_runtime_Startup_exec__E                                          
00016fd3  xdc_runtime_Startup_exec__I                                          
0002d6f4  xdc_runtime_Startup_firstFxns__A                                     
0002d77c  xdc_runtime_Startup_firstFxns__C                                     
0002da1c  xdc_runtime_Startup_lastFxns__A                                      
0002d784  xdc_runtime_Startup_lastFxns__C                                      
0002da20  xdc_runtime_Startup_maxPasses__C                                     
00011707  xdc_runtime_Startup_reset__I                                         
0002d708  xdc_runtime_Startup_sfxnRts__A                                       
0002da24  xdc_runtime_Startup_sfxnRts__C                                       
0002d420  xdc_runtime_Startup_sfxnTab__A                                       
0002da28  xdc_runtime_Startup_sfxnTab__C                                       
0000be65  xdc_runtime_Startup_startMods__I                                     
2001ac9c  xdc_runtime_SysMin_Module_State_0_outbuf__A                          
2001bc24  xdc_runtime_SysMin_Module__state__V                                  
000165d9  xdc_runtime_SysMin_Module_startup__E                                 
00015889  xdc_runtime_SysMin_abort__E                                          
0002da2c  xdc_runtime_SysMin_bufSize__C                                        
00016851  xdc_runtime_SysMin_exit__E                                           
0002da94  xdc_runtime_SysMin_flushAtExit__C                                    
000144ed  xdc_runtime_SysMin_flush__E                                          
0002da30  xdc_runtime_SysMin_outputFunc__C                                     
00016393  xdc_runtime_SysMin_output__I                                         
00014f29  xdc_runtime_SysMin_putch__E                                          
00017179  xdc_runtime_SysMin_ready__E                                          
000168f1  xdc_runtime_System_Module_GateProxy_Handle__label__S                 
000164d9  xdc_runtime_System_Module_GateProxy_Object__delete__S                
000143d5  xdc_runtime_System_Module_GateProxy_enter__E                         
0001441d  xdc_runtime_System_Module_GateProxy_leave__E                         
000174c1  xdc_runtime_System_Module_GateProxy_query__E                         
2001bcfc  xdc_runtime_System_Module_State_0_atexitHandlers__A                  
0002da34  xdc_runtime_System_Module__gateObj__C                                
2001bd04  xdc_runtime_System_Module__state__V                                  
000174af  xdc_runtime_System_Module_startup__E                                 
00015889  xdc_runtime_System_SupportProxy_abort__E                             
00016851  xdc_runtime_System_SupportProxy_exit__E                              
000144ed  xdc_runtime_System_SupportProxy_flush__E                             
00014f29  xdc_runtime_System_SupportProxy_putch__E                             
00017179  xdc_runtime_System_SupportProxy_ready__E                             
0002da38  xdc_runtime_System_abortFxn__C                                       
00013261  xdc_runtime_System_abortStd__E                                       
0001686d  xdc_runtime_System_abort__E                                          
000169ad  xdc_runtime_System_aprintf__E                                        
0001477d  xdc_runtime_System_aprintf_va__F                                     
00014f61  xdc_runtime_System_atexit__E                                         
00015fc5  xdc_runtime_System_avprintf__E                                       
000042e5  xdc_runtime_System_doPrint__I                                        
0002da3c  xdc_runtime_System_exitFxn__C                                        
00013269  xdc_runtime_System_exitStd__E                                        
00016c51  xdc_runtime_System_exit__E                                           
0002da40  xdc_runtime_System_extendFxn__C                                      
00011709  xdc_runtime_System_formatNum__I                                      
0002da44  xdc_runtime_System_maxAtexitHandlers__C                              
0000bf5d  xdc_runtime_System_printfExtend__I                                   
000169c7  xdc_runtime_System_printf__E                                         
00014b8d  xdc_runtime_System_printf_va__F                                      
000158b9  xdc_runtime_System_processAtExit__E                                  
00015c85  xdc_runtime_System_putchar__I                                        
000162e5  xdc_runtime_System_vprintf__E                                        
00017189  xdc_runtime_System_vsnprintf__E                                      
00016d47  xdc_runtime_System_vsprintf__E                                       
0002da96  xdc_runtime_Text_charCnt__C                                          
0001f4dc  xdc_runtime_Text_charTab__A                                          
0002da48  xdc_runtime_Text_charTab__C                                          
00015bb1  xdc_runtime_Text_cordText__E                                         
0002da98  xdc_runtime_Text_isLoaded__C                                         
0002da4c  xdc_runtime_Text_nameEmpty__C                                        
0002da50  xdc_runtime_Text_nameStatic__C                                       
0002da54  xdc_runtime_Text_nameUnknown__C                                      
0002c8b4  xdc_runtime_Text_nodeTab__A                                          
0002da58  xdc_runtime_Text_nodeTab__C                                          
000153b5  xdc_runtime_Text_printVisFxn__I                                      
00012b81  xdc_runtime_Text_putLab__E                                           
0000edc9  xdc_runtime_Text_putMod__E                                           
0000f17d  xdc_runtime_Text_putSite__E                                          
0002da9a  xdc_runtime_Text_registryModsLastId__C                               
00016c69  xdc_runtime_Text_ropeText__E                                         
0002da9c  xdc_runtime_Text_unnamedModsLastId__C                                
00013685  xdc_runtime_Text_visitRope2__I                                       
0002da5c  xdc_runtime_Text_visitRopeFxn__C                                     
00017199  xdc_runtime_Text_visitRope__I                                        
00014531  xdc_runtime_Text_xprintf__I                                          
0000cea9  xdc_runtime_Timestamp_SupportProxy_get32__E                          
00007dd1  xdc_runtime_Timestamp_SupportProxy_get64__E                          
00017099  xdc_runtime_Timestamp_SupportProxy_getFreq__E                        


GLOBAL SYMBOLS: SORTED BY Symbol Address 

address   name                                                                 
-------   ----                                                                 
00000000  __ASM__                                                              
00000000  ti_sysbios_family_arm_m3_Hwi_resetVectors                            
00000001  xdc_runtime_Startup__EXECFXN__C                                      
00000001  xdc_runtime_Startup__RESETFXN__C                                     
00000041  TcpInput                                                             
00000056  __ISA__                                                              
00000069  __PLAT__                                                             
0000008a  __TARG__                                                             
000000b0  __TRDR__                                                             
00000300  __STACK_SIZE                                                         
00000ca9  RMSCalc_Task                                                         
0000162d  TcpOutput                                                            
00001ee5  arm_radix8_butterfly_f32                                             
000025b1  arm_cfft_radix8by4_f32                                               
00002a09  arm_cfft_radix8by2_f32                                               
00002b8d  arm_cfft_f32                                                         
00002c67  LED_TOGGLE                                                           
00002c69  ADC_Seq1_ISR                                                         
000031d1  ADC_Seq0_ISR                                                         
00003729  ti_sysbios_family_arm_m3_Hwi_excDumpRegs__I                          
00003b59  IPTxPacket                                                           
00003f61  IPRxPacket                                                           
000042e5  xdc_runtime_System_doPrint__I                                        
00004631  HOSTwrite                                                            
0000467d  HOSTunlink                                                           
000046b5  HOSTtime64                                                           
000046ff  HOSTtime                                                             
00004739  HOSTrename                                                           
00004797  HOSTread                                                             
000047e3  HOSTopen                                                             
00004835  HOSTlseek                                                            
00004891  HOSTgetenv                                                           
000048cf  HOSTclose                                                            
00004907  HOSTclock                                                            
00004955  ADCIntClearEx                                                        
00004959  ti_sysbios_knl_Semaphore_pend__E                                     
00004c3d  FFTCalc_Task                                                         
00004f1d  BindGetIF                                                            
00004f21  ti_sysbios_knl_Task_Instance_finalize__E                             
000051e1  SockSet                                                              
00005465  BindGetNext                                                          
00005469  ti_sysbios_heaps_HeapMem_free__E                                     
000056bd  IPReasm                                                              
00005909  ti_sysbios_heaps_HeapMem_alloc__E                                    
00005b51  ICMPInput                                                            
00005d8d  UdpInput                                                             
00005fc5  SysCtlClockFreqSet                                                   
000061c9  ti_catalog_arm_cortexm4_tiva_ce_Boot_sysCtlClockFreqSetI__I          
000063cd  NDK_vsprintf                                                         
000063d1  TaskSleep                                                            
000063d1  ti_sysbios_knl_Task_sleep__E                                         
000065d1  ti_sysbios_family_arm_m3_Hwi_excHandlerMax__I                        
000067cd  SockRecv                                                             
000069c1  ti_sysbios_knl_Task_Instance_init__E                                 
00006bb5  tcpHandler                                                           
00006d9d  EMACSnow_NIMUInit                                                    
00006f55  LLITxIpPacket                                                        
00007105  LLIRxPacket                                                          
000072b1  ti_sysbios_family_arm_lm4_Timer_start__E                             
00007455  mmAlloc                                                              
000075f1  ADC_init                                                             
00007789  IGMPInput                                                            
00007921  ti_sysbios_family_arm_m3_Hwi_dispatchC__I                            
00007ab9  SockNew                                                              
00007c49  ti_sysbios_knl_Task_setPri__E                                        
00007dcd  NodeSetRt                                                            
00007dd1  ti_sysbios_family_arm_lm4_TimestampProvider_get64__E                 
00007dd1  xdc_runtime_Timestamp_SupportProxy_get64__E                          
00007f4d  stage_rfft_f32                                                       
00007fef  merge_rfft_f32                                                       
00008087  arm_rfft_fast_f32                                                    
000080c5  RawEthSockPrAttach                                                   
000080c9  ti_sysbios_knl_Swi_run__I                                            
00008241  NC_NetStart                                                          
000083b5  RawEthSockPrDetach                                                   
000083b9  ti_sysbios_family_arm_m3_Hwi_excBusFault__I                          
0000852d  RTCReport                                                            
0000869d  SBRead                                                               
00008807  NatMsg                                                               
00008809  ti_sysbios_family_arm_m3_Hwi_excUsageFault__I                        
0000896d  SockConnect                                                          
00008acd  SemPend                                                              
00008ad1  ti_sysbios_utils_Load_logLoads__I                                    
00008c31  DHCPOpen                                                             
00008d89  GPIO_setConfig                                                       
00008ed9  ti_sysbios_family_arm_m3_Hwi_excMemFault__I                          
00009021  BindNew                                                              
00009165  TcpTimeoutCheck                                                      
000092a5  SemPost                                                              
000092a9  ti_sysbios_knl_Semaphore_post__E                                     
000093e9  CfgAddEntry                                                          
00009525  SockNotify                                                           
00009661  SockSend                                                             
0000979d  arm_cmplx_mag_f32                                                    
000098d9  ti_sysbios_heaps_HeapMem_Instance_init__E                            
00009a15  ti_uia_loggers_LoggerStopMode_writeMemoryRange__E                    
00009b4d  ICMPGenPacket                                                        
00009c81  ti_sysbios_knl_Clock_workFunc__E                                     
00009db5  GPIOPadConfigSet                                                     
00009ee5  EK_TM4C1294XL_initEMAC                                               
0000a011  SockPcbResolve                                                       
0000a135  UdpOutput                                                            
0000a259  ti_ndk_config_Global_stackThread                                     
0000a37d  SemReset                                                             
0000a381  ti_sysbios_knl_Clock_Instance_init__E                                
0000a49d  TcpGenPacket                                                         
0000a5b5  xdc_runtime_Error_policyDefault__E                                   
0000a6cd  NIMUIoctl                                                            
0000a7e1  ti_sysbios_utils_Load_updateThreadContexts__E                        
0000a8f5  NodeTreeFree                                                         
0000aa05  RawInput                                                             
0000ab15  TaskSelf                                                             
0000ab19  ti_sysbios_knl_Task_schedule__I                                      
0000ac29  RtFind                                                               
0000ad35  ti_uia_loggers_LoggerStopMode_write8__E                              
0000ae41  RtCreate                                                             
0000af4b  _TaskInit                                                            
0000af4d  EMACSnow_emacStart                                                   
0000b055  TaskSetPri                                                           
0000b059  TaskExit                                                             
0000b059  ti_sysbios_knl_Task_exit__E                                          
0000b161  llEnter                                                              
0000b265  TimerADCEventSet                                                     
0000b269  ti_sysbios_knl_Swi_Instance_init__E                                  
0000b36d  _llSerialInit                                                        
0000b371  ti_sysbios_knl_Swi_Module_startup__E                                 
0000b475  dhcpPacketProcess                                                    
0000b577  inet_aton                                                            
0000b779  PinoutSetADC                                                         
0000b879  xdc_runtime_Core_createObject__I                                     
0000ba75  arm_rfft_fast_init_f32                                               
0000bb71  ti_sysbios_knl_Task_postInit__I                                      
0000bc6d  list_get_head                                                        
0000bc71  ti_sysbios_knl_Task_startCore__E                                     
0000bd6d  PipeRecv                                                             
0000be65  xdc_runtime_Startup_startMods__I                                     
0000bf5d  xdc_runtime_System_printfExtend__I                                   
0000c055  TaskGetEnv                                                           
0000c149  ti_sysbios_family_arm_m3_Hwi_dispatch__I                             
0000c23d  ti_uia_loggers_LoggerStopMode_write4__E                              
0000c331  LLIGenArpPacket                                                      
0000c421  SockClose                                                            
0000c511  TaskSetEnv                                                           
0000c5f9  ti_uia_loggers_LoggerStopMode_write2__E                              
0000c6e1  DMA_init                                                             
0000c7c5  ti_uia_loggers_LoggerStopMode_write1__E                              
0000c8a9  TcpTimeoutRexmt                                                      
0000c989  SBWrite                                                              
0000ca65  dhcpSocketOpen                                                       
0000cb41  dhcpState                                                            
0000cc1d  ti_uia_loggers_LoggerStopMode_write0__E                              
0000ccf9  NodeAdd                                                              
0000cdd1  TcpPrSetOption                                                       
0000cea9  ti_sysbios_family_arm_lm4_TimestampProvider_get32__E                 
0000cea9  xdc_runtime_Timestamp_SupportProxy_get32__E                          
0000cf81  ti_sysbios_family_arm_m3_Hwi_postInit__I                             
0000d059  ti_sysbios_knl_Swi_post__E                                           
0000d205  SockPcbBind                                                          
0000d2d9  NIMUReceivePacket                                                    
0000d3ab  _TaskShutdown                                                        
0000d3ad  ICMPSendRtAdv                                                        
0000d611  dhcpVerifyMessage                                                    
0000d6dd  list_get_next                                                        
0000d6e1  ti_sysbios_family_arm_m3_Hwi_Instance_init__E                        
0000d7ad  xdc_runtime_Core_constructObject__I                                  
0000d879  RawEthSockNew                                                        
0000da09  EMACSnow_InitDMADescriptors                                          
0000dc55  arm_bitreversal_32                                                   
0000dcbf  arm_bitreversal_16                                                   
0000dd15  tcpWorker                                                            
0000de91  VLANDeinit                                                           
0000df51  ti_sysbios_family_arm_m3_Hwi_excDebugMon__I                          
0000e00d  ti_sysbios_BIOS_RtsGateProxy_enter__E                                
0000e011  ti_sysbios_family_arm_m3_Hwi_excHardFault__I                         
0000e0cd  EK_TM4C1294XL_initGeneral                                            
0000e23d  _LLITimeoutCheck                                                     
0000e2f5  ti_sysbios_BIOS_RtsGateProxy_leave__E                                
0000e2f9  ti_sysbios_knl_Task_unblockI__E                                      
0000e3b1  TcpTimeoutKeep                                                       
0000e465  ti_sysbios_family_arm_lm4_Timer_masterEnable__I                      
0000e469  ti_sysbios_gates_GateMutex_enter__E                                  
0000e51d  ti_sysbios_family_arm_m3_Hwi_delete                                  
0000e521  ti_sysbios_knl_Task_checkStacks__E                                   
0000e5d5  RawEthSockSet                                                        
0000e685  ti_sysbios_family_arm_m3_TaskSupport_Module__startupDone__S          
0000e685  ti_sysbios_knl_Task_SupportProxy_Module__startupDone__S              
0000e689  ti_sysbios_utils_Load_idleFxn__E                                     
0000e739  ti_sysbios_utils_Load_updateLoads__E                                 
0000e739  ti_sysbios_utils_Load_update__E                                      
0000e895  ti_ndk_config_ip_init                                                
0000e941  ti_sysbios_family_arm_lm4_Timer_enableTiva__I                        
0000e9ed  SockCreatePacket                                                     
0000ea95  ti_sysbios_heaps_HeapMem_Module_GateProxy_enter__E                   
0000ea99  ti_sysbios_family_arm_lm4_Timer_enableTimers__I                      
0000eb41  ti_sysbios_knl_Task_blockI__E                                        
0000ebe9  IPGetRoute                                                           
0000ec89  __TI_auto_init                                                       
0000ed29  ti_sysbios_knl_Swi_Instance_finalize__E                              
0000edc9  xdc_runtime_Text_putMod__E                                           
0000ee69  NIMUAddEthernetHeader                                                
0000ef07  dhcpBuildRequest                                                     
0000efa5  ExecOpen                                                             
0000f041  __aeabi_memcpy                                                       
0000f041  __aeabi_memcpy4                                                      
0000f041  __aeabi_memcpy8                                                      
0000f041  memcpy                                                               
0000f0dd  ti_sysbios_heaps_HeapMem_Module_GateProxy_leave__E                   
0000f0e1  ti_sysbios_knl_Semaphore_Instance_init__E                            
0000f17d  xdc_runtime_Text_putSite__E                                          
0000f217  _llSerialServiceCheck                                                
0000f219  NC_SystemOpen                                                        
0000f349  ti_catalog_arm_cortexm4_tiva_ce_Boot_sysCtlClockFreqSet__E           
0000f3e1  CfgRemoveEntry                                                       
0000f475  ti_sysbios_knl_Clock_TimerProxy_getMaxTicks__E                       
0000f479  ti_sysbios_family_arm_m3_Hwi_initNVIC__E                             
0000f50d  CfgExecute                                                           
0000f59d  IGMPMsg                                                              
0000f62d  mmBulkAlloc                                                          
0000f6bd  ti_sysbios_knl_Clock_TimerProxy_getPeriod__E                         
0000f6c1  ti_sysbios_knl_Task_Module_startup__E                                
0000f751  ti_sysbios_utils_Load_startup__E                                     
0000f7e1  ti_uia_loggers_LoggerStopMode_initQueueDescriptor__E                 
0000f871  GPIO_init                                                            
0000f8fd  IPMsg                                                                
0000f989  _mmInit                                                              
0000faa1  ti_sysbios_family_arm_m3_TaskSupport_buildTaskStack                  
0000fb2d  ti_sysbios_knl_Queue_destruct                                        
0000fb31  ti_sysbios_utils_Load_updateCurrentThreadTime__E                     
0000fc47  _llSerialShutdown                                                    
0000fcd1  SockPcbCtlError                                                      
0000fddf  _llUserLedInit                                                       
0000fde1  CfgGetEntry                                                          
0000fe65  EMACSnow_processPhyInterrupt                                         
0000fee9  TcpPrAttach                                                          
0000ff6d  mmBulkFree                                                           
0000fff1  mmFree                                                               
00010075  uDMAChannelTransferSet                                               
0001017b  _llUserLedShutdown                                                   
0001017d  EMACSnow_emacStop                                                    
0001027d  LLINew                                                               
000102fd  NS_BootTask                                                          
0001037d  PBM_alloc                                                            
000103fd  RawOutput                                                            
0001047d  arm_rms_f32                                                          
0001057d  fdClose                                                              
000105fb  llSerialService                                                      
000105fd  CfgGetNextEntry                                                      
00010679  EMACSnow_hwiIntFxn                                                   
00010771  IGMPJoin                                                             
000107ed  NDK_setsockopt                                                       
00010869  NIMURegister                                                         
000108e5  PBM_free                                                             
00010961  ADCSequenceStepConfigure                                             
000109db  SockAccept                                                           
00010a55  __aeabi_memclr                                                       
00010a55  __aeabi_memclr4                                                      
00010a55  __aeabi_memclr8                                                      
00010a57  __aeabi_memset                                                       
00010a57  __aeabi_memset4                                                      
00010a57  __aeabi_memset8                                                      
00010a5d  memset                                                               
00010acf  __aeabi_idiv0                                                        
00010ad1  EMACInit                                                             
00010b49  NDK_sendto                                                           
00010bc1  TcpXmitTimer                                                         
00010c39  fdOpenSession                                                        
00010cb1  llExit                                                               
00010d29  ti_sysbios_family_arm_m3_Hwi_Instance_finalize__E                    
00010da1  PipeSend                                                             
00010e19  TcpTimeoutSackRexmt                                                  
00010e8f  ti_sysbios_BIOS_nullFunc__I                                          
00010e91  IGMPLeaveHostGroup                                                   
00010f05  NIMUShutdown                                                         
00010f79  RawEthRxPacket                                                       
00010fed  SockPcbConnect                                                       
00011061  netOpenHook                                                          
000110d5  ti_sysbios_knl_Semaphore_delete                                      
000110d9  ti_sysbios_family_arm_m3_Hwi_Module_startup__E                       
0001114d  ti_sysbios_knl_Semaphore_destruct                                    
00011151  ti_sysbios_knl_Clock_start__E                                        
000111c5  ti_uia_runtime_QueueDescriptor_addToList__E                          
00011239  SemCreateBinary                                                      
000112ab  NDK_accept                                                           
0001131b  NDK_send                                                             
0001138b  ti_uia_loggers_LoggerStopMode_setFilterLevel__E                      
0001146d  SockShutdown                                                         
000114dd  dhcpDecodeType                                                       
0001154d  NDK_recv                                                             
000115bb  ti_uia_loggers_LoggerStopMode_setPriority__E                         
000115bd  RtWalkNext                                                           
00011707  xdc_runtime_Startup_reset__I                                         
00011709  xdc_runtime_System_formatNum__I                                      
00011779  DbgPrintf                                                            
000117e5  NodeTreeNew                                                          
00011851  RawEthTxPacket                                                       
000118bd  UdpChecksum                                                          
00011929  arm_scale_f32                                                        
00011995  ti_sysbios_knl_Swi_delete                                            
00011999  ti_sysbios_knl_Swi_restoreHwi__E                                     
00011a05  ti_sysbios_knl_Task_delete                                           
00011a09  ti_sysbios_utils_Load_taskCreateHook__E                              
00011a75  xdc_runtime_Error_print__E                                           
00011ae1  xdc_runtime_Memory_alloc__E                                          
00011b4d  TcpPrInherit                                                         
00011c21  IntEnable                                                            
00011c89  NDK_socket                                                           
00011cf1  PBM_open                                                             
00011d59  SockListen                                                           
00011dc1  TIMER_init                                                           
00011e29  _RtNodeInsert                                                        
00011e91  __TI_writemsg                                                        
00011ebf  C$$IO$$                                                              
00011ec3  __TI_readmsg                                                         
00011ef9  ti_sysbios_utils_Load_addTask__E                                     
00011f61  ti_uia_loggers_LoggerStopMode_flush__E                               
00011fc7  xdc_runtime_Core_deleteObject__I                                     
0001202d  CfgFree                                                              
00012091  GPIO_hwiIntFxn                                                       
000120f5  PBMQ_enq                                                             
00012159  SockSpawnAbort                                                       
000121bd  llTimerTick                                                          
00012221  ti_sysbios_family_arm_lm4_Timer_Module_startup__E                    
00012285  ti_sysbios_family_arm_m3_Hwi_create                                  
000123b1  SBNew                                                                
00012415  CfgGetEntryCnt                                                       
00012475  FdWaitEvent                                                          
000124d5  NIMUUnregister                                                       
00012535  NodeFind                                                             
00012595  RTCMsg                                                               
000125f5  TcpChecksum                                                          
00012655  TimerConfigure                                                       
000126b5  dhcpBuildOptions                                                     
00012715  ti_uia_loggers_LoggerStopMode_getContents__E                         
00012719  ti_sysbios_family_arm_lm4_Timer_isrStub__E                           
00012779  ti_sysbios_knl_Clock_logTick__E                                      
000127d9  ti_sysbios_utils_Load_logCPULoad__I                                  
00012839  RtRemove                                                             
000128f5  VLANReceivePacket                                                    
00012955  CfgSetExecuteOrder                                                   
00012a69  ti_sysbios_knl_Swi_create                                            
00012ac5  ti_uia_loggers_LoggerStopMode_getFilterLevel__E                      
00012ac9  ti_sysbios_knl_Swi_schedule__I                                       
00012b25  ti_sysbios_knl_Task_create                                           
00012b81  xdc_runtime_Text_putLab__E                                           
00012bdd  RtRedirect                                                           
00012c37  TcpValidateMetrics                                                   
00012c91  dhcpBuildDecline                                                     
00012ceb  mmCopy                                                               
00012d45  ti_ndk_config_tcp_init                                               
00012da1  BindFree                                                             
00012df9  _c_int00                                                             
00012e51  EMACPHYConfigSet                                                     
00012f01  SemCreate                                                            
00012f59  TimerControlTrigger                                                  
00012fb1  ti_sysbios_family_arm_m3_Hwi_initStacks__E                           
00013009  ti_sysbios_knl_Swi_postInit__I                                       
00013061  GPIOIntTypeSet                                                       
000130b9  CfgEntryDeRef                                                        
0001310d  IGMPLeave                                                            
00013161  RawEthSockPcbAttach                                                  
000131b5  SockCleanPcb                                                         
00013209  TcpTimeoutPersist                                                    
0001325d  C$$EXIT                                                              
00013261  abort                                                                
00013261  xdc_runtime_System_abortStd__E                                       
00013269  exit                                                                 
00013269  xdc_runtime_System_exitStd__E                                        
000132b1  ti_sysbios_utils_Load_hwiBeginHook__E                                
00013305  ti_uia_loggers_LoggerStopMode_getInstanceId__E                       
00013309  ti_sysbios_utils_Load_taskSwitchHook__E                              
0001335d  xdc_runtime_Assert_raise__I                                          
000133b1  TcpPrDetach                                                          
00013405  GPIO_setCallback                                                     
00013455  GPIO_toggle                                                          
000134a5  GPIO_write                                                           
000134f5  NDK_bind                                                             
00013595  SysCtlPeripheralReset                                                
00013635  xdc_runtime_Startup_exec__E                                          
00013685  xdc_runtime_Text_visitRope2__I                                       
000136d5  NodeDeRef                                                            
00013771  NtAddNetwork                                                         
000137bd  SockValidateRoute                                                    
00013809  copy_in                                                              
00013855  ti_uia_loggers_LoggerStopMode_getMaxLength__E                        
00013859  ti_sysbios_heaps_HeapMem_getStats__E                                 
000138a5  ti_uia_loggers_LoggerStopMode_getPriority__E                         
000138a9  ti_sysbios_knl_Swi_runLoop__I                                        
000138f5  ti_uia_loggers_LoggerStopMode_getTransferType__E                     
000138f9  ti_sysbios_knl_Task_allBlockedFunction__I                            
00013945  ti_uia_loggers_LoggerStopMode_Module_startup__E                      
000139db  SockDisconnect                                                       
00013a25  TimerNew                                                             
00013a6f  CfgNew                                                               
00013ab9  GPIOPinConfigure                                                     
00013b01  LLIMsg                                                               
00013b49  NodeWalk                                                             
00013b91  RawEthSockPcbDetach                                                  
00013bd9  SockPcbResolveChain                                                  
00013c21  TcpDrop                                                              
00013c69  _LLIExpListInsert                                                    
00013cb1  _RtExpListInsert                                                     
00013d41  fdint_lockfd                                                         
00013d89  ti_sysbios_family_arm_m3_Hwi_disableInterrupt__E                     
00013d89  ti_sysbios_hal_Hwi_HwiProxy_disableInterrupt__E                      
00013dd1  ti_sysbios_family_arm_m3_Hwi_enableInterrupt__E                      
00013dd1  ti_sysbios_hal_Hwi_HwiProxy_enableInterrupt__E                       
00013e19  ti_sysbios_family_arm_m3_Hwi_excReserved__I                          
00013e61  ti_sysbios_knl_Task_deleteTerminatedTasksFunc__I                     
00013ea9  ti_sysbios_utils_Load_taskDeleteHook__E                              
00013ef1  uDMAChannelAttributeDisable                                          
00013f39  uDMAChannelAttributeEnable                                           
00013f81  NtIfIdx2Ip                                                           
00013fc7  RawEthSockSend                                                       
0001400d  TcpPrCtlError                                                        
00014053  mmZeroInit                                                           
00014099  xdc_runtime_Core_assignParams__I                                     
00014125  ICMPChecksum                                                         
00014169  IPReasmFree                                                          
000141ad  LLIGetValidTime                                                      
000141f1  RouteMsg                                                             
00014235  RtWalkEnd                                                            
00014279  SockPcbDetach                                                        
00014301  llTimerGetTime                                                       
00014345  xdc_runtime_Error_getMsg__E                                          
00014349  ti_sysbios_family_arm_lm4_Timer_stop__E                              
0001438d  xdc_runtime_Error_getSite__E                                         
00014391  ti_sysbios_family_arm_m3_Hwi_getStackInfo__E                         
00014391  ti_sysbios_hal_Hwi_HwiProxy_getStackInfo__E                          
000143d5  xdc_runtime_System_Module_GateProxy_enter__E                         
000143d9  ti_sysbios_utils_Load_removeTask__E                                  
0001441d  xdc_runtime_System_Module_GateProxy_leave__E                         
00014421  ti_sysbios_utils_Load_swiBeginHook__E                                
00014465  ti_uia_loggers_LoggerStopMode_initBuffer__I                          
000144a9  xdc_runtime_Error_setX__E                                            
000144ed  xdc_runtime_SysMin_flush__E                                          
000144ed  xdc_runtime_System_SupportProxy_flush__E                             
00014531  xdc_runtime_Text_xprintf__I                                          
00014575  NDK_listen                                                           
000145b7  TcpPrSendOOB                                                         
000145f9  fdCloseSession                                                       
0001463d  LLIValidateRoute                                                     
0001467d  PBM_copy                                                             
000146bd  SockPcbRtChange                                                      
000146fd  TcpPrSend                                                            
0001473d  __aeabi_uidiv                                                        
0001473d  __aeabi_uidivmod                                                     
0001477d  xdc_runtime_System_aprintf_va__F                                     
00014781  ti_sysbios_family_arm_lm4_Timer_startup__E                           
00014781  ti_sysbios_knl_Clock_TimerProxy_startup__E                           
000147c1  ADCSequenceConfigure                                                 
000147ff  DHCPClose                                                            
0001487b  TaskCreate                                                           
000148b9  TcpPrDisconnect                                                      
000148f7  fdint_unlockfd                                                       
00014935  CfgEntryGetData                                                      
00014971  EMACIntDisable                                                       
000149e9  RtWalkBegin                                                          
00014a25  TcpPrConnect                                                         
00014a61  TcpSetPersist                                                        
00014ad9  _RtNodeRemove                                                        
00014b15  _llTimerInit                                                         
00014b51  ti_sysbios_family_arm_m3_Hwi_excSvCall__I                            
00014b8d  xdc_runtime_System_printf_va__F                                      
00014b91  ti_sysbios_heaps_HeapMem_init__I                                     
00014bd1  ti_sysbios_knl_Swi_startup__E                                        
00014c11  ti_sysbios_utils_Load_hwiEndHook__E                                  
00014c4d  EMACIntEnable                                                        
00014c89  EMACConfigGet                                                        
00014cc1  IPReasmTimeout                                                       
00014cf9  NodeGetRt                                                            
00014d31  SysCtlPeripheralReady                                                
00014d69  TcpClose                                                             
00014da1  TimerHSTick                                                          
00014dd9  dhcpBuildDiscover                                                    
00014e11  dhcpOptionsClear                                                     
00014e49  fdint_waitevent                                                      
00014e81  ti_sysbios_family_arm_m3_Hwi_excNoIsr__I                             
00014eb9  ti_sysbios_knl_Clock_create                                          
00014ef1  ti_sysbios_knl_Task_processVitalTaskFlag__I                          
00014f29  xdc_runtime_SysMin_putch__E                                          
00014f29  xdc_runtime_System_SupportProxy_putch__E                             
00014f61  xdc_runtime_System_atexit__E                                         
00014f99  IPChecksum                                                           
00014fd1  CfgSetService                                                        
00015005  EMACConfigSet                                                        
00015039  EMACIntClear                                                         
0001506d  EMACSnow_emacPoll                                                    
000150a1  EMACSnow_isLinkUp                                                    
000150d5  EMAC_init                                                            
00015109  ExecClose                                                            
0001513d  NIMUFindByName                                                       
00015171  NIMUInit                                                             
000151a5  RawEthSockNotify                                                     
000151d9  SockPrCtlError                                                       
0001520d  SysCtlPeripheralEnable                                               
00015279  ti_sysbios_family_arm_m3_Hwi_excNmi__I                               
000152b1  ti_sysbios_hal_Hwi_checkStack                                        
000152e5  ti_sysbios_knl_Semaphore_create                                      
00015319  ti_sysbios_utils_Load_swiEndHook__E                                  
0001534d  ti_uia_loggers_LoggerStopMode_reset__E                               
00015381  xdc_runtime_Core_assignLabel__I                                      
000153b5  xdc_runtime_Text_printVisFxn__I                                      
000153e9  CfgGetImmediate                                                      
0001541b  RtDeRef                                                              
0001544d  RtSetFailure                                                         
0001547f  SBFlush                                                              
000154b1  SBSetMax                                                             
000154e3  SockIntAbort                                                         
00015579  ti_sysbios_hal_Hwi_initStack                                         
000155ab  EMACRxDMADescriptorListSet                                           
000155b1  ti_sysbios_knl_Semaphore_pendTimeout__I                              
000155e3  EMACAddrSet                                                          
00015645  NS_PreBoot                                                           
00015675  SockBind                                                             
000156a5  SockGetName                                                          
000156d5  dhcpPacketSend                                                       
00015705  list_remove_node                                                     
00015735  ti_sysbios_BIOS_atExitFunc__I                                        
00015769  ti_sysbios_family_arm_m3_TaskSupport_start__E                        
00015769  ti_sysbios_knl_Task_SupportProxy_start__E                            
00015799  ti_sysbios_gates_GateHwi_Object__create__S                           
000157c9  ti_sysbios_gates_GateMutex_Object__create__S                         
000157f9  ti_sysbios_heaps_HeapMem_Object__create__S                           
00015829  ti_sysbios_knl_Semaphore_construct                                   
00015859  ti_uia_loggers_LoggerStopMode_Object__create__S                      
00015889  xdc_runtime_SysMin_abort__E                                          
00015889  xdc_runtime_System_SupportProxy_abort__E                             
000158b9  xdc_runtime_System_processAtExit__E                                  
000158e9  SBFree                                                               
00015917  EMACIntStatus                                                        
00015943  FdSignalEvent                                                        
00015971  IGMPTestGroup                                                        
0001599d  NDK_hookCreate                                                       
000159f5  NIMUPacketServiceCheck                                               
00015a21  PipeClose                                                            
00015a4d  SockPcbAttach                                                        
00015a79  _LLIExpListRemove                                                    
00015aa5  _LLITimeoutFlush                                                     
00015ad1  _RtExpListRemove                                                     
00015afd  ti_sysbios_knl_Clock_doTick__I                                       
00015b29  ti_sysbios_knl_Queue_construct                                       
00015b59  ti_sysbios_knl_Task_restore__E                                       
00015b85  uDMAChannelAssign                                                    
00015bb1  xdc_runtime_Text_cordText__E                                         
00015bdd  GPIODirModeSet                                                       
00015c07  PBMQ_deq                                                             
00015c85  xdc_runtime_System_putchar__I                                        
00015cb1  BindFindByNet                                                        
00015cd9  LLIFree                                                              
00015d01  NC_SystemClose                                                       
00015d29  NIMUCreatePacket                                                     
00015d51  NIMUPacketService                                                    
00015df1  VLANInit                                                             
00015e19  dhcpPacketReceive                                                    
00015e41  sqrtf                                                                
00015e91  ti_sysbios_BIOS_startFunc__I                                         
00015eb9  uDMAChannelModeGet                                                   
00015ee1  CfgEntryInfo                                                         
00015f07  EMACPHYRead                                                          
00015f2d  EMACPHYWrite                                                         
00015f53  RawEthSockClose                                                      
00015f79  ti_ndk_config_udp_init                                               
00015f9f  ti_sysbios_family_arm_m3_Hwi_pendSV__I                               
00015fc3  ti_sysbios_family_arm_m3_Hwi_return                                  
00015fc5  xdc_runtime_System_avprintf__E                                       
00015fed  BindFindByHost                                                       
00016011  BindGetIFByDBCast                                                    
00016035  EMACSnow_pkt_service                                                 
0001607d  ExecTimer                                                            
000160a1  NIMUFindByIndex                                                      
000160c5  RTCAddHook                                                           
000160e9  RawEthSockPcbFind                                                    
00016131  RtSetTimeout                                                         
00016155  SockPcbCleanup                                                       
00016179  TcpPrListen                                                          
0001619d  TcpTimeoutWait2                                                      
000161e5  ti_sysbios_BIOS_registerRTSLock__I                                   
00016209  ti_sysbios_BIOS_removeRTSLock__I                                     
00016231  ti_sysbios_family_arm_m3_Hwi_doTaskRestore__I                        
00016255  ti_sysbios_BIOS_RtsGateProxy_Object__delete__S                       
00016255  ti_sysbios_gates_GateMutex_Object__delete__S                         
00016255  ti_sysbios_heaps_HeapMem_Module_GateProxy_Object__delete__S          
00016279  ti_sysbios_knl_Clock_Module_startup__E                               
0001629d  ti_sysbios_knl_Semaphore_Object__delete__S                           
000162c1  uDMAChannelControlSet                                                
000162e5  xdc_runtime_System_vprintf__E                                        
00016309  CfgEntryRef                                                          
00016371  ti_sysbios_family_arm_lm4_Timer_write__I                             
00016393  xdc_runtime_SysMin_output__I                                         
000163b5  NC_BootComplete                                                      
000163f5  RTCRemoveHook                                                        
00016415  TcpTimeoutRemove                                                     
00016455  ti_sysbios_BIOS_rtsLock__I                                           
00016475  ti_sysbios_family_arm_m3_Hwi_Object__delete__S                       
00016475  ti_sysbios_hal_Hwi_HwiProxy_Object__delete__S                        
00016495  ti_sysbios_family_arm_m3_Hwi_excHandlerAsm__I                        
000164b9  ti_sysbios_family_arm_m3_Hwi_excHandler__I                           
000164d9  ti_sysbios_gates_GateHwi_Object__delete__S                           
000164d9  xdc_runtime_Main_Module_GateProxy_Object__delete__S                  
000164d9  xdc_runtime_System_Module_GateProxy_Object__delete__S                
000164f9  ti_sysbios_heaps_HeapMem_Object__delete__S                           
000164f9  xdc_runtime_Memory_HeapProxy_Object__delete__S                       
00016519  ti_sysbios_knl_Idle_run__E                                           
00016539  ti_sysbios_knl_Semaphore_Object__destruct__S                         
00016559  ti_sysbios_knl_Swi_Object__delete__S                                 
00016579  ti_sysbios_knl_Task_Object__delete__S                                
00016599  ti_uia_loggers_LoggerStopMode_Object__delete__S                      
000165b9  xdc_runtime_Registry_findById__E                                     
000165d9  xdc_runtime_SysMin_Module_startup__E                                 
000165f9  list_remove                                                          
00016617  main                                                                 
00016671  ti_sysbios_BIOS_errorRaiseHook__I                                    
0001668f  ti_sysbios_family_xxx_Hwi_switchAndRunFunc                           
000166ad  BindFindByIF                                                         
000166e5  NDK_sprintf                                                          
00016701  NIMUAddHeader                                                        
0001671d  SockPrDetach                                                         
00016739  TaskDestroy                                                          
0001678d  ti_ndk_config_global_taskCreateHook                                  
000167a9  ti_sysbios_gates_GateMutex_Instance_init__E                          
000167c5  ti_sysbios_knl_Queue_Object__destruct__S                             
000167e1  ti_sysbios_knl_Task_enter__I                                         
000167fd  ti_uia_loggers_LoggerStopMode_Instance_init__E                       
00016819  xdc_runtime_Error_raiseX__E                                          
00016835  xdc_runtime_Memory_valloc__E                                         
00016851  xdc_runtime_SysMin_exit__E                                           
00016851  xdc_runtime_System_SupportProxy_exit__E                              
0001686d  xdc_runtime_System_abort__E                                          
00016889  BindGetIP                                                            
000168a3  SockSetOOBMark                                                       
000168bd  fdint_getfdt                                                         
000168d7  ti_sysbios_family_arm_m3_Hwi_Handle__label__S                        
000168d7  ti_sysbios_hal_Hwi_HwiProxy_Handle__label__S                         
000168f1  ti_sysbios_gates_GateHwi_Handle__label__S                            
000168f1  xdc_runtime_Main_Module_GateProxy_Handle__label__S                   
000168f1  xdc_runtime_System_Module_GateProxy_Handle__label__S                 
0001690b  ti_sysbios_BIOS_RtsGateProxy_Handle__label__S                        
0001690b  ti_sysbios_gates_GateMutex_Handle__label__S                          
0001690b  ti_sysbios_heaps_HeapMem_Module_GateProxy_Handle__label__S           
00016925  ti_sysbios_heaps_HeapMem_Handle__label__S                            
00016925  xdc_runtime_Memory_HeapProxy_Handle__label__S                        
0001693f  ti_sysbios_knl_Swi_Handle__label__S                                  
00016959  ti_sysbios_knl_Task_Handle__label__S                                 
00016973  EMACTxDMADescriptorListSet                                           
00016979  ti_sysbios_knl_Task_sleepTimeout__I                                  
00016993  ti_uia_loggers_LoggerStopMode_Handle__label__S                       
000169ad  xdc_runtime_System_aprintf__E                                        
000169c7  xdc_runtime_System_printf__E                                         
000169e1  ADCClockConfigSet                                                    
000169f9  EMACSnow_emacSend                                                    
00016a11  IPRtChange                                                           
00016a29  InitSamples                                                          
00016a41  RawEthSockPcbCleanup                                                 
00016b31  TcpTimeoutAdd                                                        
00016b49  dhcpSocketClose                                                      
00016b61  list_add                                                             
00016b79  _args_main                                                           
00016b91  strcmp                                                               
00016ba9  ti_sysbios_BIOS_rtsUnlock__I                                         
00016bc1  ti_sysbios_family_arm_lm4_Timer_Module__startupDone__F               
00016bc1  ti_sysbios_family_arm_lm4_Timer_Module__startupDone__S               
00016bc1  ti_sysbios_knl_Clock_TimerProxy_Module__startupDone__S               
00016bd9  ti_sysbios_family_arm_m3_Hwi_Module__startupDone__F                  
00016bd9  ti_sysbios_family_arm_m3_Hwi_Module__startupDone__S                  
00016bd9  ti_sysbios_hal_Hwi_HwiProxy_Module__startupDone__S                   
00016bf1  ti_sysbios_family_arm_m3_TaskSupport_swap__E                         
00016bf1  ti_sysbios_knl_Task_SupportProxy_swap__E                             
00016bfd  ti_sysbios_knl_Task_swapReturn                                       
00016c09  ti_sysbios_gates_GateMutex_leave__E                                  
00016c21  uDMAChannelEnable                                                    
00016c39  xdc_runtime_Error_check__E                                           
00016c51  xdc_runtime_System_exit__E                                           
00016c69  xdc_runtime_Text_ropeText__E                                         
00016c81  EMACReset                                                            
00016c97  EMACRxEnable                                                         
00016cad  EMACTxEnable                                                         
00016cc3  fdint_freefdt                                                        
00016cd9  ti_sysbios_BIOS_exitFunc__I                                          
00016d1b  ti_uia_loggers_LoggerStopMode_disable__E                             
00016d31  ti_uia_loggers_LoggerStopMode_enable__E                              
00016d47  xdc_runtime_System_vsprintf__E                                       
00016d5d  BindIPHost2IF                                                        
00016d71  FlashUserGet                                                         
00016d85  HeartBeat_Idle                                                       
00016d99  NC_NetStop                                                           
00016dad  NDK_hookExit                                                         
00016dc1  NIMUSendPacket                                                       
00016dd5  NtRemoveNetwork                                                      
00016de9  RawEthSockPcbInit                                                    
00016dfd  TimerFree                                                            
00016e39  _register_unlock                                                     
00016e3f  _register_lock                                                       
00016e47  _nop                                                                 
00016e4d  strcpy                                                               
00016e61  strlen                                                               
00016e89  ti_ndk_config_global_taskExitHook                                    
00016e9d  ti_sysbios_family_arm_m3_Hwi_Object__get__S                          
00016eb1  ti_sysbios_family_arm_m3_Hwi_switchFromBootStack__E                  
00016eb1  ti_sysbios_hal_Hwi_HwiProxy_switchFromBootStack__E                   
00016ec5  ti_sysbios_heaps_HeapMem_Object__get__S                              
00016ed9  ti_sysbios_knl_Swi_Object__get__S                                    
00016eed  ti_sysbios_knl_Task_Object__first__S                                 
00016f01  ti_sysbios_knl_Task_Object__get__S                                   
00016f15  ti_sysbios_knl_Task_Object__next__S                                  
00016f29  ADCHardwareOversampleConfigure                                       
00016f3b  GPIOPinTypeADC                                                       
00016f4d  GPIOPinTypeEthernetLED                                               
00016f5f  SockPrAttach                                                         
00016f71  SockSetOOBData                                                       
00016f83  TimerLoadSet                                                         
00016f95  inet_addr                                                            
00016fa9  ti_sysbios_hal_Hwi_Module_startup__E                                 
00016fbb  GPIOIntClear                                                         
00016fc1  ti_sysbios_knl_Semaphore_reset__E                                    
00016fd3  xdc_runtime_Startup_exec__I                                          
00016fe5  ti_catalog_arm_cortexm4_tiva_ce_Boot_init__I                         
00016ff5  ADCSequenceDMAEnable                                                 
00017005  BindIF2IPHost                                                        
00017015  BindIFNet2IPHost                                                     
00017025  EMACFrameFilterSet                                                   
00017035  ExecHRef                                                             
00017045  IntMasterDisable                                                     
00017055  IntMasterEnable                                                      
00017065  NC_IPUpdate                                                          
00017075  NIMUGetRsvdSizeInfo                                                  
00017099  ti_sysbios_BIOS_getCpuFreq__E                                        
00017099  ti_sysbios_family_arm_lm4_TimestampProvider_getFreq__E               
00017099  xdc_runtime_Timestamp_SupportProxy_getFreq__E                        
000170a9  ti_sysbios_BIOS_setThreadType__E                                     
000170b9  osi_start                                                            
000170b9  ti_sysbios_BIOS_start__E                                             
000170c9  ti_sysbios_family_arm_lm4_TimestampProvider_rolloverFunc__E          
000170d9  ti_sysbios_family_arm_m3_TaskSupport_glue                            
000170e9  ti_sysbios_gates_GateMutex_Instance_finalize__E                      
000170f9  ti_sysbios_knl_Semaphore_Instance_finalize__E                        
00017109  ti_sysbios_knl_Swi_disable__E                                        
00017119  osi_TaskDisable                                                      
00017119  ti_sysbios_knl_Task_disable__E                                       
00017129  ti_uia_loggers_LoggerStopMode_Object__get__S                         
00017139  ti_uia_loggers_LoggerStopMode_isEmpty__E                             
00017149  uDMAEnable                                                           
00017159  xdc_runtime_Gate_leaveSystem__E                                      
00017169  xdc_runtime_Memory_free__E                                           
00017179  xdc_runtime_SysMin_ready__E                                          
00017179  xdc_runtime_System_SupportProxy_ready__E                             
00017189  xdc_runtime_System_vsnprintf__E                                      
00017199  xdc_runtime_Text_visitRope__I                                        
000171a9  ADCSequenceDisable                                                   
000171b7  ADCSequenceEnable                                                    
000171c5  EMACSnow_emacioctl                                                   
000171d3  ExecLowResource                                                      
000171e1  GPIOIntStatus                                                        
000171ef  TimerEnable                                                          
000171fd  __TI_decompress_none                                                 
0001720b  GPIOPinRead                                                          
00017211  ti_sysbios_knl_Idle_loop__E                                          
00017221  ti_sysbios_knl_Queue_empty__E                                        
0001722f  ADCReferenceSet                                                      
0001723d  BindGetFirst                                                         
00017249  CPUcpsid                                                             
00017255  CPUcpsie                                                             
00017261  CfgSetDefault                                                        
0001726d  EMACSnow_init                                                        
00017279  NDK_hookInit                                                         
00017285  NIMUSetRsvdSizeInfo                                                  
00017291  NotifyLowResource                                                    
0001729d  PBM_close                                                            
000172a9  SemDelete                                                            
000172b5  _llTimerShutdown                                                     
000172cd  llTimerGetStartTime                                                  
000172d9  ti_sysbios_BIOS_getThreadType__E                                     
000172e9  ti_sysbios_family_arm_lm4_Timer_getMaxTicks__E                       
000172f9  ti_sysbios_family_arm_lm4_TimestampProvider_startTimer__E            
00017305  ti_sysbios_family_arm_m3_Hwi_Params__init__S                         
00017305  ti_sysbios_hal_Hwi_HwiProxy_Params__init__S                          
00017311  OEMSysCritOn                                                         
00017311  ti_sysbios_family_arm_m3_Hwi_disableFxn__E                           
00017311  ti_sysbios_hal_Hwi_HwiProxy_disable__E                               
00017321  ti_sysbios_family_arm_m3_TaskSupport_checkStack__E                   
00017321  ti_sysbios_knl_Task_SupportProxy_checkStack__E                       
00017331  ti_sysbios_family_arm_m3_TaskSupport_getStackAlignment__E            
00017331  ti_sysbios_knl_Task_SupportProxy_getStackAlignment__E                
00017341  ti_sysbios_gates_GateHwi_enter__E                                    
0001734d  ti_sysbios_knl_Clock_Params__init__S                                 
00017359  ti_sysbios_knl_Clock_getTicks__E                                     
00017365  ti_sysbios_knl_Queue_Object__get__S                                  
00017371  ti_sysbios_knl_Semaphore_Params__init__S                             
0001737d  ti_sysbios_knl_Task_Params__init__S                                  
00017389  ti_sysbios_knl_Task_getIdleTask__E                                   
00017399  ti_sysbios_knl_Task_self__E                                          
000173a9  ti_sysbios_utils_Load_taskRegHook__E                                 
000173b5  uDMAControlBaseSet                                                   
000173c1  xdc_runtime_Error_init__E                                            
000173cd  xdc_runtime_Gate_enterSystem__E                                      
000173d9  xdc_runtime_Memory_calloc__E                                         
000173e5  xdc_runtime_Memory_getMaxDefaultTypeAlign__E                         
000173f1  fdint_signalevent                                                    
000173fb  fdint_signaltimeout                                                  
00017405  xdc_runtime_Memory_HeapProxy_alloc__E                                
0001740f  xdc_runtime_Memory_HeapProxy_free__E                                 
00017419  ADCIntEnableEx                                                       
00017421  EK_TM4C1294XL_initGPIO                                               
00017429  EMACTxDMAPollDemand                                                  
00017439  TaskBlock                                                            
00017441  ti_sysbios_family_arm_lm4_Timer_masterDisable__I                     
00017449  ti_sysbios_family_arm_m3_Hwi_doSwiRestore__I                         
00017451  ti_sysbios_family_arm_m3_Hwi_startup__E                              
00017451  ti_sysbios_hal_Hwi_HwiProxy_startup__E                               
00017459  ti_sysbios_knl_Task_getHookContext__E                                
00017461  ti_sysbios_knl_Task_setHookContext__E                                
00017469  GPIOPinWrite                                                         
0001746f  SysCtlDelay                                                          
00017475  TcpPrRecv                                                            
0001747b  __xdc__init                                                          
00017481  __TI_decompress_rle24                                                
00017489  ti_sysbios_family_arm_lm4_TimestampProvider_Module_startup__E        
00017491  OEMSysCritOff                                                        
00017491  ti_sysbios_family_arm_m3_Hwi_restoreFxn__E                           
00017491  ti_sysbios_hal_Hwi_HwiProxy_restore__E                               
00017499  ti_sysbios_gates_GateHwi_leave__E                                    
000174a1  ti_sysbios_heaps_HeapMem_isBlocking__E                               
000174a9  ti_sysbios_knl_Queue_Instance_init__E                                
000174af  xdc_runtime_System_Module_startup__E                                 
000174b9  ti_sysbios_family_arm_lm4_Timer_getPeriod__E                         
000174c1  ti_sysbios_gates_GateHwi_query__E                                    
000174c1  xdc_runtime_Main_Module_GateProxy_query__E                           
000174c1  xdc_runtime_System_Module_GateProxy_query__E                         
000174c9  ti_sysbios_BIOS_RtsGateProxy_query__E                                
000174c9  ti_sysbios_gates_GateMutex_query__E                                  
000174c9  ti_sysbios_heaps_HeapMem_Module_GateProxy_query__E                   
000174d1  ti_sysbios_knl_Task_startup__E                                       
000174d9  ti_sysbios_gates_GateHwi_Instance_init__E                            
000174dc  twiddleCoef_2048                                                     
0001b4dc  twiddleCoef_rfft_4096                                                
0001f4dc  xdc_runtime_Text_charTab__A                                          
00021614  twiddleCoef_1024                                                     
00023614  twiddleCoef_rfft_2048                                                
00025614  armBitRevIndexTable2048                                              
000273d4  twiddleCoef_512                                                      
000283d4  twiddleCoef_rfft_1024                                                
000293d4  armBitRevIndexTable1024                                              
0002a1e4  twiddleCoef_256                                                      
0002a9e4  twiddleCoef_rfft_512                                                 
0002b1e4  twiddleCoef_128                                                      
0002b5e4  twiddleCoef_rfft_256                                                 
0002b9e4  armBitRevIndexTable512                                               
0002bd64  armBitRevIndexTable256                                               
0002c0d4  twiddleCoef_64                                                       
0002c2d4  twiddleCoef_rfft_128                                                 
0002c4d4  armBitRevIndexTable128                                               
0002c8b4  xdc_runtime_Text_nodeTab__A                                          
0002cad4  twiddleCoef_32                                                       
0002cbd4  twiddleCoef_rfft_64                                                  
0002cd64  twiddleCoef_16                                                       
0002cde4  twiddleCoef_rfft_32                                                  
0002ce64  armBitRevIndexTable64                                                
0002d01c  armBitRevIndexTable32                                                
0002d07c  ti_uia_loggers_LoggerStopMode_Module__FXNS__C                        
0002d130  Code2Err                                                             
0002d1cc  ti_ndk_config_Global_rawPageSize                                     
0002d1d0  ti_ndk_config_Global_rawPageCount                                    
0002d1d4  ti_ndk_config_Global_smallest                                        
0002d1d8  ti_ndk_config_Global_largest                                         
0002d1dc  ti_ndk_config_Global_numFrameBuf                                     
0002d1e0  ti_ndk_config_Global_sizeFrameBuf                                    
0002d1e4  ADC_Seq0_Handle                                                      
0002d1e8  InitSamples_Handle                                                   
0002d1ec  data_proc1_Sem                                                       
0002d1f0  RMSCalc_Handle                                                       
0002d1f4  data_proc1_fft_Sem                                                   
0002d1f8  FFTCalc_Handle                                                       
0002d1fc  data_proc2_Sem                                                       
0002d200  ADC_Seq1_Handle                                                      
0002d204  data_proc3_Sem                                                       
0002d208  data_proc4_Sem                                                       
0002d20c  data_proc3_fft_Sem                                                   
0002d24e  ti_catalog_arm_cortexm4_tiva_ce_Boot_Module__id__C                   
0002d250  ti_sysbios_knl_Task_Object__PARAMS__C                                
0002d2bf  xdc_runtime_Error_policy__C                                          
0002d320  ti_sysbios_family_arm_m3_Hwi_Object__PARAMS__C                       
0002d350  ti_sysbios_knl_Task_hooks__A                                         
0002d380  armBitRevIndexTable16                                                
0002d3a8  ti_sysbios_heaps_HeapMem_Module__FXNS__C                             
0002d3d0  ti_sysbios_knl_Swi_Object__PARAMS__C                                 
0002d3f8  ti_uia_loggers_LoggerStopMode_Object__PARAMS__C                      
0002d420  xdc_runtime_Startup_sfxnTab__A                                       
0002d448  ti_sysbios_gates_GateHwi_Module__FXNS__C                             
0002d46c  ti_sysbios_gates_GateMutex_Module__FXNS__C                           
0002d490  ti_sysbios_heaps_HeapMem_Object__PARAMS__C                           
0002d4b4  ti_sysbios_knl_Clock_Object__PARAMS__C                               
0002d4d8  ti_sysbios_knl_Semaphore_Object__PARAMS__C                           
0002d4fc  ti_sysbios_family_arm_m3_Hwi_Object__DESC__C                         
0002d51c  ti_sysbios_gates_GateHwi_Object__DESC__C                             
0002d53c  ti_sysbios_gates_GateMutex_Object__DESC__C                           
0002d55c  ti_sysbios_heaps_HeapMem_Object__DESC__C                             
0002d57c  ti_sysbios_knl_Clock_Object__DESC__C                                 
0002d59c  ti_sysbios_knl_Queue_Object__DESC__C                                 
0002d5bc  ti_sysbios_knl_Semaphore_Object__DESC__C                             
0002d5dc  ti_sysbios_knl_Swi_Object__DESC__C                                   
0002d5fc  ti_sysbios_knl_Task_Object__DESC__C                                  
0002d61c  ti_uia_loggers_LoggerStopMode_Object__DESC__C                        
0002d63c  EMAC_config                                                          
0002d66c  ti_sysbios_gates_GateHwi_Object__PARAMS__C                           
0002d684  ti_sysbios_gates_GateMutex_Object__PARAMS__C                         
0002d69c  ti_sysbios_knl_Queue_Object__PARAMS__C                               
0002d6b4  ti_sysbios_knl_Swi_hooks__A                                          
0002d6cc  GPIOTiva_config                                                      
0002d6e0  ti_sysbios_family_arm_m3_Hwi_hooks__A                                
0002d6f4  xdc_runtime_Startup_firstFxns__A                                     
0002d708  xdc_runtime_Startup_sfxnRts__A                                       
0002d71c  emacHWAttrs                                                          
0002d72c  ti_sysbios_knl_Idle_funcList__A                                      
0002d74c  EMACSnow_fxnTable                                                    
0002d754  ti_sysbios_family_arm_m3_Hwi_excHookFuncs__A                         
0002d75c  ti_sysbios_family_arm_m3_Hwi_hooks__C                                
0002d764  ti_sysbios_knl_Idle_funcList__C                                      
0002d76c  ti_sysbios_knl_Swi_hooks__C                                          
0002d774  ti_sysbios_knl_Task_hooks__C                                         
0002d77c  xdc_runtime_Startup_firstFxns__C                                     
0002d784  xdc_runtime_Startup_lastFxns__C                                      
0002d78c  ti_catalog_arm_cortexm4_tiva_ce_Boot_A_mustNotUseEnhancedClockMode__C
0002d790  ti_catalog_arm_cortexm4_tiva_ce_Boot_Module__diagsEnabled__C         
0002d794  ti_catalog_arm_cortexm4_tiva_ce_Boot_Module__diagsIncluded__C        
0002d798  ti_catalog_arm_cortexm4_tiva_ce_Boot_Module__diagsMask__C            
0002d79c  ti_sysbios_family_arm_lm4_Timer_enableFunc__C                        
0002d7a0  ti_sysbios_family_arm_lm4_Timer_numTimerDevices__C                   
0002d7a4  ti_sysbios_family_arm_lm4_Timer_startupNeeded__C                     
0002d7a8  ti_sysbios_family_arm_m3_Hwi_E_NMI__C                                
0002d7ac  ti_sysbios_family_arm_m3_Hwi_E_alreadyDefined__C                     
0002d7b0  ti_sysbios_family_arm_m3_Hwi_E_busFault__C                           
0002d7b4  ti_sysbios_family_arm_m3_Hwi_E_debugMon__C                           
0002d7b8  ti_sysbios_family_arm_m3_Hwi_E_hardFault__C                          
0002d7bc  ti_sysbios_family_arm_m3_Hwi_E_memFault__C                           
0002d7c0  ti_sysbios_family_arm_m3_Hwi_E_noIsr__C                              
0002d7c4  ti_sysbios_family_arm_m3_Hwi_E_reserved__C                           
0002d7c8  ti_sysbios_family_arm_m3_Hwi_E_svCall__C                             
0002d7cc  ti_sysbios_family_arm_m3_Hwi_E_usageFault__C                         
0002d7d0  ti_sysbios_family_arm_m3_Hwi_LD_end__C                               
0002d7d4  ti_sysbios_family_arm_m3_Hwi_LM_begin__C                             
0002d7d8  ti_sysbios_family_arm_m3_Hwi_Module__diagsEnabled__C                 
0002d7dc  ti_sysbios_family_arm_m3_Hwi_Module__diagsIncluded__C                
0002d7e0  ti_sysbios_family_arm_m3_Hwi_Module__diagsMask__C                    
0002d7e4  ti_sysbios_family_arm_m3_Hwi_Module__loggerFxn1__C                   
0002d7e8  ti_sysbios_family_arm_m3_Hwi_Module__loggerFxn8__C                   
0002d7ec  ti_sysbios_family_arm_m3_Hwi_Module__loggerObj__C                    
0002d7f0  ti_sysbios_family_arm_m3_Hwi_NUM_INTERRUPTS__C                       
0002d7f4  ti_sysbios_family_arm_m3_Hwi_Object__count__C                        
0002d7f8  ti_sysbios_family_arm_m3_Hwi_Object__heap__C                         
0002d7fc  ti_sysbios_family_arm_m3_Hwi_ccr__C                                  
0002d800  ti_sysbios_family_arm_m3_Hwi_excHandlerFunc__C                       
0002d804  ti_sysbios_family_arm_m3_Hwi_excHookFuncs__C                         
0002d808  ti_sysbios_family_arm_m3_Hwi_nullIsrFunc__C                          
0002d80c  ti_sysbios_family_arm_m3_Hwi_priGroup__C                             
0002d810  ti_sysbios_family_arm_m3_TaskSupport_stackAlignment__C               
0002d814  ti_sysbios_gates_GateMutex_A_badContext__C                           
0002d818  ti_sysbios_gates_GateMutex_Instance_State_sem__O                     
0002d81c  ti_sysbios_gates_GateMutex_Module__diagsEnabled__C                   
0002d820  ti_sysbios_gates_GateMutex_Module__diagsIncluded__C                  
0002d824  ti_sysbios_gates_GateMutex_Module__diagsMask__C                      
0002d828  ti_sysbios_hal_Hwi_E_stackOverflow__C                                
0002d82c  ti_sysbios_heaps_HeapMem_A_align__C                                  
0002d830  ti_sysbios_heaps_HeapMem_A_heapSize__C                               
0002d834  ti_sysbios_heaps_HeapMem_A_invalidFree__C                            
0002d838  ti_sysbios_heaps_HeapMem_A_zeroBlock__C                              
0002d83c  ti_sysbios_heaps_HeapMem_E_memory__C                                 
0002d840  ti_sysbios_heaps_HeapMem_Module__diagsEnabled__C                     
0002d844  ti_sysbios_heaps_HeapMem_Module__diagsIncluded__C                    
0002d848  ti_sysbios_heaps_HeapMem_Module__diagsMask__C                        
0002d84c  ti_sysbios_heaps_HeapMem_Module__gateObj__C                          
0002d850  ti_sysbios_heaps_HeapMem_Object__count__C                            
0002d854  ti_sysbios_heaps_HeapMem_reqAlign__C                                 
0002d858  ti_sysbios_knl_Clock_A_badThreadType__C                              
0002d85c  ti_sysbios_knl_Clock_LM_begin__C                                     
0002d860  ti_sysbios_knl_Clock_LM_tick__C                                      
0002d864  ti_sysbios_knl_Clock_LW_delayed__C                                   
0002d868  ti_sysbios_knl_Clock_Module_State_clockQ__O                          
0002d86c  ti_sysbios_knl_Clock_Module__diagsEnabled__C                         
0002d870  ti_sysbios_knl_Clock_Module__diagsIncluded__C                        
0002d874  ti_sysbios_knl_Clock_Module__diagsMask__C                            
0002d878  ti_sysbios_knl_Clock_Module__loggerFxn1__C                           
0002d87c  ti_sysbios_knl_Clock_Module__loggerFxn2__C                           
0002d880  ti_sysbios_knl_Clock_Module__loggerObj__C                            
0002d884  ti_sysbios_knl_Semaphore_A_badContext__C                             
0002d888  ti_sysbios_knl_Semaphore_A_noEvents__C                               
0002d88c  ti_sysbios_knl_Semaphore_A_overflow__C                               
0002d890  ti_sysbios_knl_Semaphore_A_pendTaskDisabled__C                       
0002d894  ti_sysbios_knl_Semaphore_Instance_State_pendQ__O                     
0002d898  ti_sysbios_knl_Semaphore_LM_pend__C                                  
0002d89c  ti_sysbios_knl_Semaphore_LM_post__C                                  
0002d8a0  ti_sysbios_knl_Semaphore_Module__diagsEnabled__C                     
0002d8a4  ti_sysbios_knl_Semaphore_Module__diagsIncluded__C                    
0002d8a8  ti_sysbios_knl_Semaphore_Module__diagsMask__C                        
0002d8ac  ti_sysbios_knl_Semaphore_Module__loggerFxn2__C                       
0002d8b0  ti_sysbios_knl_Semaphore_Module__loggerFxn4__C                       
0002d8b4  ti_sysbios_knl_Semaphore_Module__loggerObj__C                        
0002d8b8  ti_sysbios_knl_Swi_A_badPriority__C                                  
0002d8bc  ti_sysbios_knl_Swi_LD_end__C                                         
0002d8c0  ti_sysbios_knl_Swi_LM_begin__C                                       
0002d8c4  ti_sysbios_knl_Swi_LM_post__C                                        
0002d8c8  ti_sysbios_knl_Swi_Module__diagsEnabled__C                           
0002d8cc  ti_sysbios_knl_Swi_Module__diagsIncluded__C                          
0002d8d0  ti_sysbios_knl_Swi_Module__diagsMask__C                              
0002d8d4  ti_sysbios_knl_Swi_Module__loggerFxn1__C                             
0002d8d8  ti_sysbios_knl_Swi_Module__loggerFxn4__C                             
0002d8dc  ti_sysbios_knl_Swi_Module__loggerObj__C                              
0002d8e0  ti_sysbios_knl_Swi_Object__count__C                                  
0002d8e4  ti_sysbios_knl_Swi_Object__heap__C                                   
0002d8e8  ti_sysbios_knl_Swi_numConstructedSwis__C                             
0002d8ec  ti_sysbios_knl_Task_A_badPriority__C                                 
0002d8f0  ti_sysbios_knl_Task_A_badTaskState__C                                
0002d8f4  ti_sysbios_knl_Task_A_badThreadType__C                               
0002d8f8  ti_sysbios_knl_Task_A_badTimeout__C                                  
0002d8fc  ti_sysbios_knl_Task_A_noPendElem__C                                  
0002d900  ti_sysbios_knl_Task_A_sleepTaskDisabled__C                           
0002d904  ti_sysbios_knl_Task_E_deleteNotAllowed__C                            
0002d908  ti_sysbios_knl_Task_E_spOutOfBounds__C                               
0002d90c  ti_sysbios_knl_Task_E_stackOverflow__C                               
0002d910  ti_sysbios_knl_Task_LD_block__C                                      
0002d914  ti_sysbios_knl_Task_LD_exit__C                                       
0002d918  ti_sysbios_knl_Task_LD_ready__C                                      
0002d91c  ti_sysbios_knl_Task_LM_setPri__C                                     
0002d920  ti_sysbios_knl_Task_LM_sleep__C                                      
0002d924  ti_sysbios_knl_Task_LM_switch__C                                     
0002d928  ti_sysbios_knl_Task_Module_State_inactiveQ__O                        
0002d92c  ti_sysbios_knl_Task_Module_State_terminatedQ__O                      
0002d930  ti_sysbios_knl_Task_Module__diagsEnabled__C                          
0002d934  ti_sysbios_knl_Task_Module__diagsIncluded__C                         
0002d938  ti_sysbios_knl_Task_Module__diagsMask__C                             
0002d93c  ti_sysbios_knl_Task_Module__loggerFxn2__C                            
0002d940  ti_sysbios_knl_Task_Module__loggerFxn4__C                            
0002d944  ti_sysbios_knl_Task_Module__loggerObj__C                             
0002d948  ti_sysbios_knl_Task_Object__count__C                                 
0002d94c  ti_sysbios_knl_Task_Object__heap__C                                  
0002d950  ti_sysbios_knl_Task_allBlockedFunc__C                                
0002d954  ti_sysbios_knl_Task_defaultStackHeap__C                              
0002d958  ti_sysbios_knl_Task_defaultStackSize__C                              
0002d95c  ti_sysbios_knl_Task_numConstructedTasks__C                           
0002d960  ti_sysbios_utils_Load_LS_cpuLoad__C                                  
0002d964  ti_sysbios_utils_Load_LS_hwiLoad__C                                  
0002d968  ti_sysbios_utils_Load_LS_swiLoad__C                                  
0002d96c  ti_sysbios_utils_Load_LS_taskLoad__C                                 
0002d970  ti_sysbios_utils_Load_Module_State_taskList__O                       
0002d974  ti_sysbios_utils_Load_Module__diagsEnabled__C                        
0002d978  ti_sysbios_utils_Load_Module__diagsIncluded__C                       
0002d97c  ti_sysbios_utils_Load_Module__diagsMask__C                           
0002d980  ti_sysbios_utils_Load_Module__loggerFxn1__C                          
0002d984  ti_sysbios_utils_Load_Module__loggerFxn2__C                          
0002d988  ti_sysbios_utils_Load_Module__loggerFxn4__C                          
0002d98c  ti_sysbios_utils_Load_Module__loggerObj__C                           
0002d990  ti_sysbios_utils_Load_postUpdate__C                                  
0002d994  ti_sysbios_utils_Load_windowInMs__C                                  
0002d998  ti_uia_loggers_LoggerStopMode_Module__diagsEnabled__C                
0002d99c  ti_uia_loggers_LoggerStopMode_Module__diagsIncluded__C               
0002d9a0  ti_uia_loggers_LoggerStopMode_Module__diagsMask__C                   
0002d9a4  ti_uia_loggers_LoggerStopMode_Object__count__C                       
0002d9a8  ti_uia_runtime_ILoggerSnapshot_Interface__BASE__C                    
0002d9ac  ti_uia_runtime_IUIATransfer_Interface__BASE__C                       
0002d9b0  xdc_runtime_Assert_E_assertFailed__C                                 
0002d9b4  xdc_runtime_Core_A_initializedParams__C                              
0002d9b8  xdc_runtime_Core_Module__diagsEnabled__C                             
0002d9bc  xdc_runtime_Core_Module__diagsIncluded__C                            
0002d9c0  xdc_runtime_Core_Module__diagsMask__C                                
0002d9c4  xdc_runtime_Error_E_memory__C                                        
0002d9c8  xdc_runtime_Error_Module__diagsEnabled__C                            
0002d9cc  xdc_runtime_Error_Module__diagsIncluded__C                           
0002d9d0  xdc_runtime_Error_Module__diagsMask__C                               
0002d9d4  xdc_runtime_Error_Module__loggerFxn8__C                              
0002d9d8  xdc_runtime_Error_Module__loggerObj__C                               
0002d9dc  xdc_runtime_Error_policyFxn__C                                       
0002d9e0  xdc_runtime_Error_raiseHook__C                                       
0002d9e4  xdc_runtime_IFilterLogger_Interface__BASE__C                         
0002d9e8  xdc_runtime_IGateProvider_Interface__BASE__C                         
0002d9ec  xdc_runtime_IHeap_Interface__BASE__C                                 
0002d9f0  xdc_runtime_ILogger_Interface__BASE__C                               
0002d9f4  xdc_runtime_IModule_Interface__BASE__C                               
0002d9f8  xdc_runtime_Log_L_error__C                                           
0002d9fc  xdc_runtime_Log_L_info__C                                            
0002da00  xdc_runtime_Main_Module__diagsEnabled__C                             
0002da04  xdc_runtime_Main_Module__diagsIncluded__C                            
0002da08  xdc_runtime_Main_Module__diagsMask__C                                
0002da0c  xdc_runtime_Main_Module__loggerFxn4__C                               
0002da10  xdc_runtime_Main_Module__loggerObj__C                                
0002da14  xdc_runtime_Memory_defaultHeapInstance__C                            
0002da18  xdc_runtime_Startup_execImpl__C                                      
0002da1c  xdc_runtime_Startup_lastFxns__A                                      
0002da20  xdc_runtime_Startup_maxPasses__C                                     
0002da24  xdc_runtime_Startup_sfxnRts__C                                       
0002da28  xdc_runtime_Startup_sfxnTab__C                                       
0002da2c  xdc_runtime_SysMin_bufSize__C                                        
0002da30  xdc_runtime_SysMin_outputFunc__C                                     
0002da34  xdc_runtime_System_Module__gateObj__C                                
0002da38  xdc_runtime_System_abortFxn__C                                       
0002da3c  xdc_runtime_System_exitFxn__C                                        
0002da40  xdc_runtime_System_extendFxn__C                                      
0002da44  xdc_runtime_System_maxAtexitHandlers__C                              
0002da48  xdc_runtime_Text_charTab__C                                          
0002da4c  xdc_runtime_Text_nameEmpty__C                                        
0002da50  xdc_runtime_Text_nameStatic__C                                       
0002da54  xdc_runtime_Text_nameUnknown__C                                      
0002da58  xdc_runtime_Text_nodeTab__C                                          
0002da5c  xdc_runtime_Text_visitRopeFxn__C                                     
0002da60  ti_sysbios_family_arm_lm4_TimestampProvider_useClockTimer__C         
0002da62  ti_sysbios_family_arm_m3_Hwi_Module__id__C                           
0002da64  ti_sysbios_family_arm_m3_Hwi_Module__loggerDefined__C                
0002da66  ti_sysbios_gates_GateMutex_Module__id__C                             
0002da68  ti_sysbios_hal_Hwi_Module__id__C                                     
0002da6a  ti_sysbios_heaps_HeapMem_Module__id__C                               
0002da6c  ti_sysbios_knl_Clock_Module__id__C                                   
0002da6e  ti_sysbios_knl_Clock_Module__loggerDefined__C                        
0002da70  ti_sysbios_knl_Semaphore_Module__id__C                               
0002da72  ti_sysbios_knl_Semaphore_Module__loggerDefined__C                    
0002da74  ti_sysbios_knl_Swi_Module__id__C                                     
0002da76  ti_sysbios_knl_Swi_Module__loggerDefined__C                          
0002da78  ti_sysbios_knl_Task_Module__id__C                                    
0002da7a  ti_sysbios_knl_Task_Module__loggerDefined__C                         
0002da7c  ti_sysbios_utils_Load_Module__id__C                                  
0002da7e  ti_sysbios_utils_Load_Module__loggerDefined__C                       
0002da80  ti_sysbios_utils_Load_autoAddTasks__C                                
0002da82  ti_sysbios_utils_Load_updateInIdle__C                                
0002da84  ti_uia_loggers_LoggerStopMode_Module__id__C                          
0002da86  ti_uia_loggers_LoggerStopMode_isTimestampEnabled__C                  
0002da88  xdc_runtime_Core_Module__id__C                                       
0002da8a  xdc_runtime_Error_Module__loggerDefined__C                           
0002da8c  xdc_runtime_Error_maxDepth__C                                        
0002da8e  xdc_runtime_Main_Module__id__C                                       
0002da90  xdc_runtime_Main_Module__loggerDefined__C                            
0002da92  xdc_runtime_Memory_Module__id__C                                     
0002da94  xdc_runtime_SysMin_flushAtExit__C                                    
0002da96  xdc_runtime_Text_charCnt__C                                          
0002da98  xdc_runtime_Text_isLoaded__C                                         
0002da9a  xdc_runtime_Text_registryModsLastId__C                               
0002da9c  xdc_runtime_Text_unnamedModsLastId__C                                
0002daa0  __TI_static_base__                                                   
0002e26c  __TI_Handler_Table_Base                                              
0002e274  __TI_CINIT_Base                                                      
0002e274  __TI_Handler_Table_Limit                                             
0002e28c  __TI_CINIT_Limit                                                     
20000000  ti_sysbios_family_arm_m3_Hwi_ramVectors                              
20000400  ti_sysbios_heaps_HeapMem_Instance_State_0_buf__A                     
20005400  ti_ndk_config_Global_pit                                             
200054a8  ti_ndk_config_Global_pitBuffer                                       
20009ca8  _ICMPIn                                                              
20009cf4  PBMQ_free                                                            
20009d00  ti_ndk_config_Global_pBufMem                                         
2000d900  ti_ndk_config_Global_pHdrMem                                         
2000dc00  ti_uia_loggers_LoggerStopMode_Instance_State_2_packetArray__A        
2000f000  ti_sysbios_knl_Task_Instance_State_0_stack__A                        
2000f200  ti_sysbios_knl_Task_Instance_State_1_stack__A                        
2000f400  ti_sysbios_knl_Task_Instance_State_2_stack__A                        
2000f800  ti_sysbios_knl_Task_Instance_State_3_stack__A                        
2000fe00  ti_sysbios_knl_Task_Instance_State_4_stack__A                        
20010000  udmaCtrlTable                                                        
20011000  data_array1                                                          
20011800  data_array2                                                          
20012000  data_array3                                                          
20012800  data_array4                                                          
20013000  ti_uia_loggers_LoggerStopMode_Instance_State_0_packetArray__A        
20013800  data_proc0                                                           
20013c00  data_proc1                                                           
20014000  data_proc10                                                          
20014400  data_proc11                                                          
20014800  data_proc12                                                          
20014c00  data_proc13                                                          
20015000  data_proc14                                                          
20015400  data_proc15                                                          
20015800  data_proc2                                                           
20015c00  data_proc3                                                           
20016000  data_proc4                                                           
20016400  data_proc5                                                           
20016800  data_proc6                                                           
20016c00  data_proc7                                                           
20017000  data_proc8                                                           
20017400  data_proc9                                                           
20017800  ti_uia_loggers_LoggerStopMode_Instance_State_1_packetArray__A        
20017c00  wave1                                                                
20018000  wave2                                                                
20018400  ti_sysbios_family_arm_m3_Hwi_dispatchTable                           
20018760  data_proc0_mag                                                       
20018960  data_proc10_mag                                                      
20018b60  data_proc11_mag                                                      
20018d60  data_proc12_mag                                                      
20018f60  data_proc13_mag                                                      
20019160  data_proc14_mag                                                      
20019360  data_proc15_mag                                                      
20019560  data_proc1_mag                                                       
20019760  data_proc2_mag                                                       
20019960  data_proc3_mag                                                       
20019b60  data_proc4_mag                                                       
20019d60  data_proc5_mag                                                       
20019f60  data_proc6_mag                                                       
2001a160  data_proc7_mag                                                       
2001a360  data_proc8_mag                                                       
2001a560  data_proc9_mag                                                       
2001a760  __CIOBUF_                                                            
2001a980  tcps                                                                 
2001ac9c  xdc_runtime_SysMin_Module_State_0_outbuf__A                          
2001ad1c  ips                                                                  
2001ad84  nimu_mcb                                                             
2001ade8  _ICMPOut                                                             
2001ae74  tpseudo                                                              
2001ae80  ti_uia_loggers_LoggerStopMode_Instance_State_0_hdr__A                
2001aeb0  vlan_mcb                                                             
2001af00  ti_uia_loggers_LoggerStopMode_Instance_State_1_hdr__A                
2001af30  udps                                                                 
2001af54  BlockCount                                                           
2001af80  ti_uia_loggers_LoggerStopMode_Instance_State_2_hdr__A                
2001afb0  BlockMax                                                             
2001afcc  PageCount                                                            
2001afe8  PageMax                                                              
2001b004  stkEvent                                                             
2001b030  raweths                                                              
2001b040  raws                                                                 
2001b050  upseudo                                                              
2001b05c  emacObjects                                                          
2001b064  ti_sysbios_knl_Task_Instance_State_0_hookEnv__A                      
2001b06c  ti_sysbios_knl_Task_Instance_State_1_hookEnv__A                      
2001b074  ti_sysbios_knl_Task_Instance_State_2_hookEnv__A                      
2001b07c  ti_sysbios_knl_Task_Instance_State_3_hookEnv__A                      
2001b084  ti_sysbios_knl_Task_Instance_State_4_hookEnv__A                      
2001b0ac  _IGMPInDiscard                                                       
2001b0b0  _IGMPInQuery                                                         
2001b0b4  _IGMPInQueryGroup                                                    
2001b0b8  _IGMPInResponse                                                      
2001b0bc  _IGMPOutResponse                                                     
2001b0c0  g_ulStatus                                                           
2001b0d4  raweth_pcb                                                           
2001b0d8  ti_sysbios_family_arm_m3_Hwi_Instance_State_0_hookEnv__A             
2001b0dc  ti_sysbios_family_arm_m3_Hwi_Instance_State_1_hookEnv__A             
2001b0e0  ti_sysbios_family_arm_m3_Hwi_Instance_State_2_hookEnv__A             
2001b0e4  ti_sysbios_family_arm_m3_Hwi_Instance_State_3_hookEnv__A             
2001b0e8  ti_sysbios_knl_Swi_Instance_State_0_hookEnv__A                       
2001b0ec  ti_sysbios_knl_Task_Object__table__V                                 
2001b27c  _ipcfg                                                               
2001b330  ti_uia_loggers_LoggerStopMode_Object__table__V                       
2001b3cc  ti_sysbios_utils_Load_Module__state__V                               
2001b464  ti_sysbios_utils_Load_Module_State_0_taskEnv__A                      
2001b4f0  ti_sysbios_family_arm_lm4_Timer_Object__table__V                     
2001b570  ti_sysbios_knl_Swi_Module_State_0_readyQ__A                          
2001b5f0  ti_sysbios_knl_Task_Module_State_0_readyQ__A                         
2001b670  ti_sysbios_knl_Semaphore_Object__table__V                            
2001b6e8  ti_sysbios_family_arm_m3_Hwi_Object__table__V                        
2001b748  ui32Ignore                                                           
2001b74c  rms0                                                                 
2001b750  rms1                                                                 
2001b754  rms2                                                                 
2001b758  rms3                                                                 
2001b75c  rms4                                                                 
2001b760  rms5                                                                 
2001b764  rms6                                                                 
2001b768  rms7                                                                 
2001b76c  rms8                                                                 
2001b770  rms9                                                                 
2001b774  rms10                                                                
2001b778  rms11                                                                
2001b77c  rms12                                                                
2001b780  rms13                                                                
2001b784  rms14                                                                
2001b788  rms15                                                                
2001b78c  buffer                                                               
2001b790  uDMATransferCount                                                    
2001b794  uDMATransferCount2                                                   
2001b7e6  ti_sysbios_family_arm_m3_Hwi_Module_State_0_excActive__A             
2001b7e8  ti_sysbios_knl_Task_Module__state__V                                 
2001b8ac  ti_sysbios_family_arm_lm4_Timer_Module_State_0_device__A             
2001b8ec  ti_sysbios_gates_GateMutex_Object__table__V                          
2001b958  ti_sysbios_family_arm_m3_Hwi_Module__state__V                        
2001b98c  enablePrefetch                                                       
2001b990  phyCounter                                                           
2001b9be  xdc_runtime_Error_Module__state__V                                   
2001b9f0  ti_sysbios_knl_Swi_Object__table__V                                  
2001ba20  ti_sysbios_knl_Clock_Module__state__V                                
2001ba4c  pstrMsgName                                                          
2001ba74  _oscfg                                                               
2001ba98  PITCount                                                             
2001ba9c  PITUsed                                                              
2001baa0  PITHigh                                                              
2001babc  ti_sysbios_BIOS_Module__state__V                                     
2001bae0  ti_sysbios_family_arm_lm4_Timer_Module_State_0_handles__A            
2001bb00  gpioPinConfigs                                                       
2001bb38  ti_ndk_config_Global_Id2Size                                         
2001bb54  ti_sysbios_knl_Swi_Module__state__V                                  
2001bb70  ti_ndk_config_Global_HostName                                        
2001bb74  LocalIPAddr                                                          
2001bb78  LocalIPMask                                                          
2001bb7c  GatewayIP                                                            
2001bb80  DomainName                                                           
2001bb84  __xdc__init__addr                                                    
2001bbb8  ti_sysbios_heaps_HeapMem_Object__table__V                            
2001bbec  _IGMPForceVersion1                                                   
2001bbf4  __TI_cleanup_ptr                                                     
2001bbf8  __TI_dtors_ptr                                                       
2001bbfc  __TI_enable_exit_profile_output                                      
2001bc00  ti_sysbios_family_arm_lm4_Timer_Module__state__V                     
2001bc0c  ti_sysbios_knl_Task_Module__root__V                                  
2001bc18  ti_uia_runtime_QueueDescriptor_Module__state__V                      
2001bc24  xdc_runtime_SysMin_Module__state__V                                  
2001bc3c  _lock                                                                
2001bc40  _unlock                                                              
2001bc44  NIMUDeviceTable                                                      
2001bc4c  gpioCallbackFunctions                                                
2001bc64  _ICMPInErrors                                                        
2001bc68  _ICMPOutErrors                                                       
2001bc6c  _IPExecuting                                                         
2001bc84  tcp_iss                                                              
2001bc88  ptTimeFirst                                                          
2001bc94  ti_uia_runtime_QueueDescriptor_gPtrToFirstDescriptor                 
2001bc98  ti_uia_runtime_QueueDescriptor_gUpdateCount                          
2001bc9c  ti_sysbios_family_arm_lm4_TimestampProvider_Module__state__V         
2001bca4  ti_sysbios_family_arm_m3_Hwi_Module__root__V                         
2001bcac  ti_sysbios_gates_GateHwi_Module__root__V                             
2001bcb4  ti_sysbios_gates_GateMutex_Module__root__V                           
2001bcbc  ti_sysbios_heaps_HeapMem_Module__root__V                             
2001bcc4  ti_sysbios_knl_Clock_Module__root__V                                 
2001bccc  ti_sysbios_knl_Queue_Module__root__V                                 
2001bcd4  ti_sysbios_knl_Semaphore_Module__root__V                             
2001bcdc  ti_sysbios_knl_Swi_Module__root__V                                   
2001bce4  ti_uia_loggers_LoggerStopMode_Module__root__V                        
2001bcec  xdc_runtime_Registry_Module__state__V                                
2001bcf4  xdc_runtime_Startup_Module__state__V                                 
2001bcfc  xdc_runtime_System_Module_State_0_atexitHandlers__A                  
2001bd04  xdc_runtime_System_Module__state__V                                  
2001bd0c  macAddress                                                           
2001bd1e  xdc_runtime_Main_Module__root__V                                     
2001bd2c  errno                                                                
2001bd30  main_func_sp                                                         
2001bd38  _IPReasmPtr                                                          
2001bd48  ti_sysbios_family_arm_m3_Hwi_Module_State_0_excContext__A            
2001bd4c  ti_sysbios_family_arm_m3_Hwi_Module_State_0_excStack__A              
2001bd50  ti_sysbios_gates_GateHwi_Object__table__V                            
2001bd54  ti_sysbios_knl_Task_Module_State_0_idleTask__A                       
2001bd58  ti_sysbios_utils_Load_Module_State_0_runningTask__A                  
2001bd5c  ti_sysbios_utils_Load_Module_State_0_taskStartTime__A                
2001bd60  xdc_runtime_Memory_Module__state__V                                  
2001bd64  __stack                                                              
2001c064  __STACK_END                                                          
e000e000  ti_sysbios_family_arm_m3_Hwi_nvic                                    
ffffffff  __TI_pprof_out_hndl                                                  
ffffffff  __TI_prof_data_size                                                  
ffffffff  __TI_prof_data_start                                                 
ffffffff  __binit__                                                            
ffffffff  __c_args__                                                           
ffffffff  binit                                                                
UNDEFED   SHT$$INIT_ARRAY$$Base                                                
UNDEFED   SHT$$INIT_ARRAY$$Limit                                               

[1344 symbols]
